
bomb:     file format elf32-i386


Disassembly of section .init:

08048724 <_init>:
 8048724:	53                   	push   %ebx
 8048725:	83 ec 08             	sub    $0x8,%esp
 8048728:	e8 23 02 00 00       	call   8048950 <__x86.get_pc_thunk.bx>
 804872d:	81 c3 d3 38 00 00    	add    $0x38d3,%ebx
 8048733:	8b 83 fc ff ff ff    	mov    -0x4(%ebx),%eax
 8048739:	85 c0                	test   %eax,%eax
 804873b:	74 05                	je     8048742 <_init+0x1e>
 804873d:	e8 de 00 00 00       	call   8048820 <__gmon_start__@plt>
 8048742:	83 c4 08             	add    $0x8,%esp
 8048745:	5b                   	pop    %ebx
 8048746:	c3                   	ret    

Disassembly of section .plt:

08048750 <read@plt-0x10>:
 8048750:	ff 35 04 c0 04 08    	pushl  0x804c004
 8048756:	ff 25 08 c0 04 08    	jmp    *0x804c008
 804875c:	00 00                	add    %al,(%eax)
	...

08048760 <read@plt>:
 8048760:	ff 25 0c c0 04 08    	jmp    *0x804c00c
 8048766:	68 00 00 00 00       	push   $0x0
 804876b:	e9 e0 ff ff ff       	jmp    8048750 <_init+0x2c>

08048770 <fflush@plt>:
 8048770:	ff 25 10 c0 04 08    	jmp    *0x804c010
 8048776:	68 08 00 00 00       	push   $0x8
 804877b:	e9 d0 ff ff ff       	jmp    8048750 <_init+0x2c>

08048780 <fgets@plt>:
 8048780:	ff 25 14 c0 04 08    	jmp    *0x804c014
 8048786:	68 10 00 00 00       	push   $0x10
 804878b:	e9 c0 ff ff ff       	jmp    8048750 <_init+0x2c>

08048790 <signal@plt>:
 8048790:	ff 25 18 c0 04 08    	jmp    *0x804c018
 8048796:	68 18 00 00 00       	push   $0x18
 804879b:	e9 b0 ff ff ff       	jmp    8048750 <_init+0x2c>

080487a0 <sleep@plt>:
 80487a0:	ff 25 1c c0 04 08    	jmp    *0x804c01c
 80487a6:	68 20 00 00 00       	push   $0x20
 80487ab:	e9 a0 ff ff ff       	jmp    8048750 <_init+0x2c>

080487b0 <alarm@plt>:
 80487b0:	ff 25 20 c0 04 08    	jmp    *0x804c020
 80487b6:	68 28 00 00 00       	push   $0x28
 80487bb:	e9 90 ff ff ff       	jmp    8048750 <_init+0x2c>

080487c0 <__stack_chk_fail@plt>:
 80487c0:	ff 25 24 c0 04 08    	jmp    *0x804c024
 80487c6:	68 30 00 00 00       	push   $0x30
 80487cb:	e9 80 ff ff ff       	jmp    8048750 <_init+0x2c>

080487d0 <strcpy@plt>:
 80487d0:	ff 25 28 c0 04 08    	jmp    *0x804c028
 80487d6:	68 38 00 00 00       	push   $0x38
 80487db:	e9 70 ff ff ff       	jmp    8048750 <_init+0x2c>

080487e0 <getenv@plt>:
 80487e0:	ff 25 2c c0 04 08    	jmp    *0x804c02c
 80487e6:	68 40 00 00 00       	push   $0x40
 80487eb:	e9 60 ff ff ff       	jmp    8048750 <_init+0x2c>

080487f0 <puts@plt>:
 80487f0:	ff 25 30 c0 04 08    	jmp    *0x804c030
 80487f6:	68 48 00 00 00       	push   $0x48
 80487fb:	e9 50 ff ff ff       	jmp    8048750 <_init+0x2c>

08048800 <__memmove_chk@plt>:
 8048800:	ff 25 34 c0 04 08    	jmp    *0x804c034
 8048806:	68 50 00 00 00       	push   $0x50
 804880b:	e9 40 ff ff ff       	jmp    8048750 <_init+0x2c>

08048810 <__memcpy_chk@plt>:
 8048810:	ff 25 38 c0 04 08    	jmp    *0x804c038
 8048816:	68 58 00 00 00       	push   $0x58
 804881b:	e9 30 ff ff ff       	jmp    8048750 <_init+0x2c>

08048820 <__gmon_start__@plt>:
 8048820:	ff 25 3c c0 04 08    	jmp    *0x804c03c
 8048826:	68 60 00 00 00       	push   $0x60
 804882b:	e9 20 ff ff ff       	jmp    8048750 <_init+0x2c>

08048830 <exit@plt>:
 8048830:	ff 25 40 c0 04 08    	jmp    *0x804c040
 8048836:	68 68 00 00 00       	push   $0x68
 804883b:	e9 10 ff ff ff       	jmp    8048750 <_init+0x2c>

08048840 <__libc_start_main@plt>:
 8048840:	ff 25 44 c0 04 08    	jmp    *0x804c044
 8048846:	68 70 00 00 00       	push   $0x70
 804884b:	e9 00 ff ff ff       	jmp    8048750 <_init+0x2c>

08048850 <write@plt>:
 8048850:	ff 25 48 c0 04 08    	jmp    *0x804c048
 8048856:	68 78 00 00 00       	push   $0x78
 804885b:	e9 f0 fe ff ff       	jmp    8048750 <_init+0x2c>

08048860 <__isoc99_sscanf@plt>:
 8048860:	ff 25 4c c0 04 08    	jmp    *0x804c04c
 8048866:	68 80 00 00 00       	push   $0x80
 804886b:	e9 e0 fe ff ff       	jmp    8048750 <_init+0x2c>

08048870 <fopen@plt>:
 8048870:	ff 25 50 c0 04 08    	jmp    *0x804c050
 8048876:	68 88 00 00 00       	push   $0x88
 804887b:	e9 d0 fe ff ff       	jmp    8048750 <_init+0x2c>

08048880 <__errno_location@plt>:
 8048880:	ff 25 54 c0 04 08    	jmp    *0x804c054
 8048886:	68 90 00 00 00       	push   $0x90
 804888b:	e9 c0 fe ff ff       	jmp    8048750 <_init+0x2c>

08048890 <__printf_chk@plt>:
 8048890:	ff 25 58 c0 04 08    	jmp    *0x804c058
 8048896:	68 98 00 00 00       	push   $0x98
 804889b:	e9 b0 fe ff ff       	jmp    8048750 <_init+0x2c>

080488a0 <socket@plt>:
 80488a0:	ff 25 5c c0 04 08    	jmp    *0x804c05c
 80488a6:	68 a0 00 00 00       	push   $0xa0
 80488ab:	e9 a0 fe ff ff       	jmp    8048750 <_init+0x2c>

080488b0 <__fprintf_chk@plt>:
 80488b0:	ff 25 60 c0 04 08    	jmp    *0x804c060
 80488b6:	68 a8 00 00 00       	push   $0xa8
 80488bb:	e9 90 fe ff ff       	jmp    8048750 <_init+0x2c>

080488c0 <gethostbyname@plt>:
 80488c0:	ff 25 64 c0 04 08    	jmp    *0x804c064
 80488c6:	68 b0 00 00 00       	push   $0xb0
 80488cb:	e9 80 fe ff ff       	jmp    8048750 <_init+0x2c>

080488d0 <strtol@plt>:
 80488d0:	ff 25 68 c0 04 08    	jmp    *0x804c068
 80488d6:	68 b8 00 00 00       	push   $0xb8
 80488db:	e9 70 fe ff ff       	jmp    8048750 <_init+0x2c>

080488e0 <connect@plt>:
 80488e0:	ff 25 6c c0 04 08    	jmp    *0x804c06c
 80488e6:	68 c0 00 00 00       	push   $0xc0
 80488eb:	e9 60 fe ff ff       	jmp    8048750 <_init+0x2c>

080488f0 <close@plt>:
 80488f0:	ff 25 70 c0 04 08    	jmp    *0x804c070
 80488f6:	68 c8 00 00 00       	push   $0xc8
 80488fb:	e9 50 fe ff ff       	jmp    8048750 <_init+0x2c>

08048900 <__ctype_b_loc@plt>:
 8048900:	ff 25 74 c0 04 08    	jmp    *0x804c074
 8048906:	68 d0 00 00 00       	push   $0xd0
 804890b:	e9 40 fe ff ff       	jmp    8048750 <_init+0x2c>

08048910 <__sprintf_chk@plt>:
 8048910:	ff 25 78 c0 04 08    	jmp    *0x804c078
 8048916:	68 d8 00 00 00       	push   $0xd8
 804891b:	e9 30 fe ff ff       	jmp    8048750 <_init+0x2c>

Disassembly of section .text:

08048920 <_start>:
 8048920:	31 ed                	xor    %ebp,%ebp
 8048922:	5e                   	pop    %esi
 8048923:	89 e1                	mov    %esp,%ecx
 8048925:	83 e4 f0             	and    $0xfffffff0,%esp
 8048928:	50                   	push   %eax
 8048929:	54                   	push   %esp
 804892a:	52                   	push   %edx
 804892b:	68 80 a2 04 08       	push   $0x804a280
 8048930:	68 10 a2 04 08       	push   $0x804a210
 8048935:	51                   	push   %ecx
 8048936:	56                   	push   %esi
 8048937:	68 1d 8a 04 08       	push   $0x8048a1d
 804893c:	e8 ff fe ff ff       	call   8048840 <__libc_start_main@plt>
 8048941:	f4                   	hlt    
 8048942:	66 90                	xchg   %ax,%ax
 8048944:	66 90                	xchg   %ax,%ax
 8048946:	66 90                	xchg   %ax,%ax
 8048948:	66 90                	xchg   %ax,%ax
 804894a:	66 90                	xchg   %ax,%ax
 804894c:	66 90                	xchg   %ax,%ax
 804894e:	66 90                	xchg   %ax,%ax

08048950 <__x86.get_pc_thunk.bx>:
 8048950:	8b 1c 24             	mov    (%esp),%ebx
 8048953:	c3                   	ret    
 8048954:	66 90                	xchg   %ax,%ax
 8048956:	66 90                	xchg   %ax,%ax
 8048958:	66 90                	xchg   %ax,%ax
 804895a:	66 90                	xchg   %ax,%ax
 804895c:	66 90                	xchg   %ax,%ax
 804895e:	66 90                	xchg   %ax,%ax

08048960 <deregister_tm_clones>:
 8048960:	b8 c3 c7 04 08       	mov    $0x804c7c3,%eax
 8048965:	2d c0 c7 04 08       	sub    $0x804c7c0,%eax
 804896a:	83 f8 06             	cmp    $0x6,%eax
 804896d:	77 01                	ja     8048970 <deregister_tm_clones+0x10>
 804896f:	c3                   	ret    
 8048970:	b8 00 00 00 00       	mov    $0x0,%eax
 8048975:	85 c0                	test   %eax,%eax
 8048977:	74 f6                	je     804896f <deregister_tm_clones+0xf>
 8048979:	55                   	push   %ebp
 804897a:	89 e5                	mov    %esp,%ebp
 804897c:	83 ec 18             	sub    $0x18,%esp
 804897f:	c7 04 24 c0 c7 04 08 	movl   $0x804c7c0,(%esp)
 8048986:	ff d0                	call   *%eax
 8048988:	c9                   	leave  
 8048989:	c3                   	ret    
 804898a:	8d b6 00 00 00 00    	lea    0x0(%esi),%esi

08048990 <register_tm_clones>:
 8048990:	b8 c0 c7 04 08       	mov    $0x804c7c0,%eax
 8048995:	2d c0 c7 04 08       	sub    $0x804c7c0,%eax
 804899a:	c1 f8 02             	sar    $0x2,%eax
 804899d:	89 c2                	mov    %eax,%edx
 804899f:	c1 ea 1f             	shr    $0x1f,%edx
 80489a2:	01 d0                	add    %edx,%eax
 80489a4:	d1 f8                	sar    %eax
 80489a6:	75 01                	jne    80489a9 <register_tm_clones+0x19>
 80489a8:	c3                   	ret    
 80489a9:	ba 00 00 00 00       	mov    $0x0,%edx
 80489ae:	85 d2                	test   %edx,%edx
 80489b0:	74 f6                	je     80489a8 <register_tm_clones+0x18>
 80489b2:	55                   	push   %ebp
 80489b3:	89 e5                	mov    %esp,%ebp
 80489b5:	83 ec 18             	sub    $0x18,%esp
 80489b8:	89 44 24 04          	mov    %eax,0x4(%esp)
 80489bc:	c7 04 24 c0 c7 04 08 	movl   $0x804c7c0,(%esp)
 80489c3:	ff d2                	call   *%edx
 80489c5:	c9                   	leave  
 80489c6:	c3                   	ret    
 80489c7:	89 f6                	mov    %esi,%esi
 80489c9:	8d bc 27 00 00 00 00 	lea    0x0(%edi,%eiz,1),%edi

080489d0 <__do_global_dtors_aux>:
 80489d0:	80 3d e4 c7 04 08 00 	cmpb   $0x0,0x804c7e4
 80489d7:	75 13                	jne    80489ec <__do_global_dtors_aux+0x1c>
 80489d9:	55                   	push   %ebp
 80489da:	89 e5                	mov    %esp,%ebp
 80489dc:	83 ec 08             	sub    $0x8,%esp
 80489df:	e8 7c ff ff ff       	call   8048960 <deregister_tm_clones>
 80489e4:	c6 05 e4 c7 04 08 01 	movb   $0x1,0x804c7e4
 80489eb:	c9                   	leave  
 80489ec:	f3 c3                	repz ret 
 80489ee:	66 90                	xchg   %ax,%ax

080489f0 <frame_dummy>:
 80489f0:	a1 10 bf 04 08       	mov    0x804bf10,%eax
 80489f5:	85 c0                	test   %eax,%eax
 80489f7:	74 1f                	je     8048a18 <frame_dummy+0x28>
 80489f9:	b8 00 00 00 00       	mov    $0x0,%eax
 80489fe:	85 c0                	test   %eax,%eax
 8048a00:	74 16                	je     8048a18 <frame_dummy+0x28>
 8048a02:	55                   	push   %ebp
 8048a03:	89 e5                	mov    %esp,%ebp
 8048a05:	83 ec 18             	sub    $0x18,%esp
 8048a08:	c7 04 24 10 bf 04 08 	movl   $0x804bf10,(%esp)
 8048a0f:	ff d0                	call   *%eax
 8048a11:	c9                   	leave  
 8048a12:	e9 79 ff ff ff       	jmp    8048990 <register_tm_clones>
 8048a17:	90                   	nop
 8048a18:	e9 73 ff ff ff       	jmp    8048990 <register_tm_clones>

08048a1d <main>:
 8048a1d:	55                   	push   %ebp
 8048a1e:	89 e5                	mov    %esp,%ebp
 8048a20:	53                   	push   %ebx
 8048a21:	83 e4 f0             	and    $0xfffffff0,%esp
 8048a24:	83 ec 10             	sub    $0x10,%esp
 8048a27:	8b 5d 0c             	mov    0xc(%ebp),%ebx
 8048a2a:	83 7d 08 01          	cmpl   $0x1,0x8(%ebp)
 8048a2e:	75 0c                	jne    8048a3c <main+0x1f>
 8048a30:	a1 c4 c7 04 08       	mov    0x804c7c4,%eax
 8048a35:	a3 ec c7 04 08       	mov    %eax,0x804c7ec
 8048a3a:	eb 75                	jmp    8048ab1 <main+0x94>
 8048a3c:	83 7d 08 02          	cmpl   $0x2,0x8(%ebp)
 8048a40:	75 49                	jne    8048a8b <main+0x6e>
 8048a42:	c7 44 24 04 a8 a2 04 	movl   $0x804a2a8,0x4(%esp)
 8048a49:	08 
 8048a4a:	8b 43 04             	mov    0x4(%ebx),%eax
 8048a4d:	89 04 24             	mov    %eax,(%esp)
 8048a50:	e8 1b fe ff ff       	call   8048870 <fopen@plt>
 8048a55:	a3 ec c7 04 08       	mov    %eax,0x804c7ec
 8048a5a:	85 c0                	test   %eax,%eax
 8048a5c:	75 53                	jne    8048ab1 <main+0x94>
 8048a5e:	8b 43 04             	mov    0x4(%ebx),%eax
 8048a61:	89 44 24 0c          	mov    %eax,0xc(%esp)
 8048a65:	8b 03                	mov    (%ebx),%eax
 8048a67:	89 44 24 08          	mov    %eax,0x8(%esp)
 8048a6b:	c7 44 24 04 aa a2 04 	movl   $0x804a2aa,0x4(%esp)
 8048a72:	08 
 8048a73:	c7 04 24 01 00 00 00 	movl   $0x1,(%esp)
 8048a7a:	e8 11 fe ff ff       	call   8048890 <__printf_chk@plt>
 8048a7f:	c7 04 24 08 00 00 00 	movl   $0x8,(%esp)
 8048a86:	e8 a5 fd ff ff       	call   8048830 <exit@plt>
 8048a8b:	8b 03                	mov    (%ebx),%eax
 8048a8d:	89 44 24 08          	mov    %eax,0x8(%esp)
 8048a91:	c7 44 24 04 c7 a2 04 	movl   $0x804a2c7,0x4(%esp)
 8048a98:	08 
 8048a99:	c7 04 24 01 00 00 00 	movl   $0x1,(%esp)
 8048aa0:	e8 eb fd ff ff       	call   8048890 <__printf_chk@plt>
 8048aa5:	c7 04 24 08 00 00 00 	movl   $0x8,(%esp)
 8048aac:	e8 7f fd ff ff       	call   8048830 <exit@plt>
 8048ab1:	e8 00 06 00 00       	call   80490b6 <initialize_bomb>
 8048ab6:	c7 04 24 2c a3 04 08 	movl   $0x804a32c,(%esp)
 8048abd:	e8 2e fd ff ff       	call   80487f0 <puts@plt>
 8048ac2:	c7 04 24 68 a3 04 08 	movl   $0x804a368,(%esp)
 8048ac9:	e8 22 fd ff ff       	call   80487f0 <puts@plt>
 8048ace:	e8 16 08 00 00       	call   80492e9 <read_line>
 8048ad3:	89 04 24             	mov    %eax,(%esp)
 8048ad6:	e8 a5 00 00 00       	call   8048b80 <phase_1>
 8048adb:	e8 00 09 00 00       	call   80493e0 <phase_defused>
 8048ae0:	c7 04 24 94 a3 04 08 	movl   $0x804a394,(%esp)
 8048ae7:	e8 04 fd ff ff       	call   80487f0 <puts@plt>
 8048aec:	e8 f8 07 00 00       	call   80492e9 <read_line>
 8048af1:	89 04 24             	mov    %eax,(%esp)
 8048af4:	e8 ab 00 00 00       	call   8048ba4 <phase_2>
 8048af9:	e8 e2 08 00 00       	call   80493e0 <phase_defused>
 8048afe:	c7 04 24 e1 a2 04 08 	movl   $0x804a2e1,(%esp)
 8048b05:	e8 e6 fc ff ff       	call   80487f0 <puts@plt>
 8048b0a:	e8 da 07 00 00       	call   80492e9 <read_line>
 8048b0f:	89 04 24             	mov    %eax,(%esp)
 8048b12:	e8 e1 00 00 00       	call   8048bf8 <phase_3>
 8048b17:	e8 c4 08 00 00       	call   80493e0 <phase_defused>
 8048b1c:	c7 04 24 ff a2 04 08 	movl   $0x804a2ff,(%esp)
 8048b23:	e8 c8 fc ff ff       	call   80487f0 <puts@plt>
 8048b28:	e8 bc 07 00 00       	call   80492e9 <read_line>
 8048b2d:	89 04 24             	mov    %eax,(%esp)
 8048b30:	e8 1c 02 00 00       	call   8048d51 <phase_4>
 8048b35:	e8 a6 08 00 00       	call   80493e0 <phase_defused>
 8048b3a:	c7 04 24 c0 a3 04 08 	movl   $0x804a3c0,(%esp)
 8048b41:	e8 aa fc ff ff       	call   80487f0 <puts@plt>
 8048b46:	e8 9e 07 00 00       	call   80492e9 <read_line>
 8048b4b:	89 04 24             	mov    %eax,(%esp)
 8048b4e:	e8 62 02 00 00       	call   8048db5 <phase_5>
 8048b53:	e8 88 08 00 00       	call   80493e0 <phase_defused>
 8048b58:	c7 04 24 0e a3 04 08 	movl   $0x804a30e,(%esp)
 8048b5f:	e8 8c fc ff ff       	call   80487f0 <puts@plt>
 8048b64:	e8 80 07 00 00       	call   80492e9 <read_line>
 8048b69:	89 04 24             	mov    %eax,(%esp)
 8048b6c:	e8 b0 02 00 00       	call   8048e21 <phase_6>
 8048b71:	e8 6a 08 00 00       	call   80493e0 <phase_defused>
 8048b76:	b8 00 00 00 00       	mov    $0x0,%eax
 8048b7b:	8b 5d fc             	mov    -0x4(%ebp),%ebx
 8048b7e:	c9                   	leave  
 8048b7f:	c3                   	ret    

08048b80 <phase_1>:
 8048b80:	55                   	push   %ebp
 8048b81:	89 e5                	mov    %esp,%ebp
 8048b83:	83 ec 18             	sub    $0x18,%esp
 8048b86:	c7 44 24 04 e4 a3 04 	movl   $0x804a3e4,0x4(%esp)
 8048b8d:	08 
 8048b8e:	8b 45 08             	mov    0x8(%ebp),%eax
 8048b91:	89 04 24             	mov    %eax,(%esp)
 8048b94:	e8 b7 04 00 00       	call   8049050 <strings_not_equal>
 8048b99:	85 c0                	test   %eax,%eax
 8048b9b:	74 05                	je     8048ba2 <phase_1+0x22>
 8048b9d:	e8 b6 06 00 00       	call   8049258 <explode_bomb>
 8048ba2:	c9                   	leave  
 8048ba3:	c3                   	ret    

08048ba4 <phase_2>:
 8048ba4:	55                   	push   %ebp
 8048ba5:	89 e5                	mov    %esp,%ebp
 8048ba7:	56                   	push   %esi
 8048ba8:	53                   	push   %ebx
 8048ba9:	83 ec 30             	sub    $0x30,%esp
 8048bac:	8d 45 e0             	lea    -0x20(%ebp),%eax
 8048baf:	89 44 24 04          	mov    %eax,0x4(%esp)
 8048bb3:	8b 45 08             	mov    0x8(%ebp),%eax
 8048bb6:	89 04 24             	mov    %eax,(%esp)
 8048bb9:	e8 dc 06 00 00       	call   804929a <read_six_numbers>
 8048bbe:	83 7d e0 00          	cmpl   $0x0,-0x20(%ebp)
 8048bc2:	75 06                	jne    8048bca <phase_2+0x26>
 8048bc4:	83 7d e4 01          	cmpl   $0x1,-0x1c(%ebp)
 8048bc8:	74 1f                	je     8048be9 <phase_2+0x45>
 8048bca:	e8 89 06 00 00       	call   8049258 <explode_bomb>
 8048bcf:	eb 18                	jmp    8048be9 <phase_2+0x45>
 8048bd1:	8b 43 f8             	mov    -0x8(%ebx),%eax
 8048bd4:	03 43 fc             	add    -0x4(%ebx),%eax
 8048bd7:	39 03                	cmp    %eax,(%ebx)
 8048bd9:	74 05                	je     8048be0 <phase_2+0x3c>
 8048bdb:	e8 78 06 00 00       	call   8049258 <explode_bomb>
 8048be0:	83 c3 04             	add    $0x4,%ebx
 8048be3:	39 f3                	cmp    %esi,%ebx
 8048be5:	75 ea                	jne    8048bd1 <phase_2+0x2d>
 8048be7:	eb 08                	jmp    8048bf1 <phase_2+0x4d>
 8048be9:	8d 5d e8             	lea    -0x18(%ebp),%ebx
 8048bec:	8d 75 f8             	lea    -0x8(%ebp),%esi
 8048bef:	eb e0                	jmp    8048bd1 <phase_2+0x2d>
 8048bf1:	83 c4 30             	add    $0x30,%esp
 8048bf4:	5b                   	pop    %ebx
 8048bf5:	5e                   	pop    %esi
 8048bf6:	5d                   	pop    %ebp
 8048bf7:	c3                   	ret    

08048bf8 <phase_3>:
 8048bf8:	55                   	push   %ebp
 8048bf9:	89 e5                	mov    %esp,%ebp
 8048bfb:	83 ec 38             	sub    $0x38,%esp
 8048bfe:	8d 45 f4             	lea    -0xc(%ebp),%eax
 8048c01:	89 44 24 10          	mov    %eax,0x10(%esp)
 8048c05:	8d 45 ef             	lea    -0x11(%ebp),%eax
 8048c08:	89 44 24 0c          	mov    %eax,0xc(%esp)
 8048c0c:	8d 45 f0             	lea    -0x10(%ebp),%eax
 8048c0f:	89 44 24 08          	mov    %eax,0x8(%esp)
 8048c13:	c7 44 24 04 3a a4 04 	movl   $0x804a43a,0x4(%esp)
 8048c1a:	08 
 8048c1b:	8b 45 08             	mov    0x8(%ebp),%eax
 8048c1e:	89 04 24             	mov    %eax,(%esp)
 8048c21:	e8 3a fc ff ff       	call   8048860 <__isoc99_sscanf@plt>
 8048c26:	83 f8 02             	cmp    $0x2,%eax
 8048c29:	7f 05                	jg     8048c30 <phase_3+0x38>
 8048c2b:	e8 28 06 00 00       	call   8049258 <explode_bomb>
 8048c30:	83 7d f0 07          	cmpl   $0x7,-0x10(%ebp)
 8048c34:	0f 87 af 00 00 00    	ja     8048ce9 <phase_3+0xf1>
 8048c3a:	8b 45 f0             	mov    -0x10(%ebp),%eax
 8048c3d:	ff 24 85 60 a4 04 08 	jmp    *0x804a460(,%eax,4)
 8048c44:	b0 67                	mov    $0x67,%al
 8048c46:	81 7d f4 99 00 00 00 	cmpl   $0x99,-0xc(%ebp)
 8048c4d:	0f 84 9d 00 00 00    	je     8048cf0 <phase_3+0xf8>
 8048c53:	e8 00 06 00 00       	call   8049258 <explode_bomb>
 8048c58:	b0 67                	mov    $0x67,%al
 8048c5a:	e9 91 00 00 00       	jmp    8048cf0 <phase_3+0xf8>
 8048c5f:	b0 73                	mov    $0x73,%al
 8048c61:	81 7d f4 87 01 00 00 	cmpl   $0x187,-0xc(%ebp)
 8048c68:	0f 84 82 00 00 00    	je     8048cf0 <phase_3+0xf8>
 8048c6e:	e8 e5 05 00 00       	call   8049258 <explode_bomb>
 8048c73:	b0 73                	mov    $0x73,%al
 8048c75:	eb 79                	jmp    8048cf0 <phase_3+0xf8>
 8048c77:	b0 67                	mov    $0x67,%al
 8048c79:	81 7d f4 dc 01 00 00 	cmpl   $0x1dc,-0xc(%ebp)
 8048c80:	74 6e                	je     8048cf0 <phase_3+0xf8>
 8048c82:	e8 d1 05 00 00       	call   8049258 <explode_bomb>
 8048c87:	b0 67                	mov    $0x67,%al
 8048c89:	eb 65                	jmp    8048cf0 <phase_3+0xf8>
 8048c8b:	b0 69                	mov    $0x69,%al
 8048c8d:	83 7d f4 34          	cmpl   $0x34,-0xc(%ebp)
 8048c91:	74 5d                	je     8048cf0 <phase_3+0xf8>
 8048c93:	e8 c0 05 00 00       	call   8049258 <explode_bomb>
 8048c98:	b0 69                	mov    $0x69,%al
 8048c9a:	eb 54                	jmp    8048cf0 <phase_3+0xf8>
 8048c9c:	b0 6b                	mov    $0x6b,%al
 8048c9e:	83 7d f4 48          	cmpl   $0x48,-0xc(%ebp)
 8048ca2:	74 4c                	je     8048cf0 <phase_3+0xf8>
 8048ca4:	e8 af 05 00 00       	call   8049258 <explode_bomb>
 8048ca9:	b0 6b                	mov    $0x6b,%al
 8048cab:	eb 43                	jmp    8048cf0 <phase_3+0xf8>
 8048cad:	b0 71                	mov    $0x71,%al
 8048caf:	81 7d f4 12 03 00 00 	cmpl   $0x312,-0xc(%ebp)
 8048cb6:	74 38                	je     8048cf0 <phase_3+0xf8>
 8048cb8:	e8 9b 05 00 00       	call   8049258 <explode_bomb>
 8048cbd:	b0 71                	mov    $0x71,%al
 8048cbf:	eb 2f                	jmp    8048cf0 <phase_3+0xf8>
 8048cc1:	b0 71                	mov    $0x71,%al
 8048cc3:	81 7d f4 c1 01 00 00 	cmpl   $0x1c1,-0xc(%ebp)
 8048cca:	74 24                	je     8048cf0 <phase_3+0xf8>
 8048ccc:	e8 87 05 00 00       	call   8049258 <explode_bomb>
 8048cd1:	b0 71                	mov    $0x71,%al
 8048cd3:	eb 1b                	jmp    8048cf0 <phase_3+0xf8>
 8048cd5:	b0 78                	mov    $0x78,%al
 8048cd7:	81 7d f4 5d 02 00 00 	cmpl   $0x25d,-0xc(%ebp)
 8048cde:	74 10                	je     8048cf0 <phase_3+0xf8>
 8048ce0:	e8 73 05 00 00       	call   8049258 <explode_bomb>
 8048ce5:	b0 78                	mov    $0x78,%al
 8048ce7:	eb 07                	jmp    8048cf0 <phase_3+0xf8>
 8048ce9:	e8 6a 05 00 00       	call   8049258 <explode_bomb>
 8048cee:	b0 69                	mov    $0x69,%al
 8048cf0:	3a 45 ef             	cmp    -0x11(%ebp),%al
 8048cf3:	74 05                	je     8048cfa <phase_3+0x102>
 8048cf5:	e8 5e 05 00 00       	call   8049258 <explode_bomb>
 8048cfa:	c9                   	leave  
 8048cfb:	c3                   	ret    

08048cfc <func4>:
 8048cfc:	55                   	push   %ebp
 8048cfd:	89 e5                	mov    %esp,%ebp
 8048cff:	53                   	push   %ebx
 8048d00:	83 ec 14             	sub    $0x14,%esp
 8048d03:	8b 55 08             	mov    0x8(%ebp),%edx
 8048d06:	8b 45 0c             	mov    0xc(%ebp),%eax
 8048d09:	8b 5d 10             	mov    0x10(%ebp),%ebx
 8048d0c:	29 c3                	sub    %eax,%ebx
 8048d0e:	d1 eb                	shr    %ebx
 8048d10:	01 c3                	add    %eax,%ebx
 8048d12:	39 d3                	cmp    %edx,%ebx
 8048d14:	76 17                	jbe    8048d2d <func4+0x31>
 8048d16:	8d 4b ff             	lea    -0x1(%ebx),%ecx
 8048d19:	89 4c 24 08          	mov    %ecx,0x8(%esp)
 8048d1d:	89 44 24 04          	mov    %eax,0x4(%esp)
 8048d21:	89 14 24             	mov    %edx,(%esp)
 8048d24:	e8 d3 ff ff ff       	call   8048cfc <func4>
 8048d29:	01 d8                	add    %ebx,%eax
 8048d2b:	eb 1e                	jmp    8048d4b <func4+0x4f>
 8048d2d:	89 d8                	mov    %ebx,%eax
 8048d2f:	39 d3                	cmp    %edx,%ebx
 8048d31:	73 18                	jae    8048d4b <func4+0x4f>
 8048d33:	8b 45 10             	mov    0x10(%ebp),%eax
 8048d36:	89 44 24 08          	mov    %eax,0x8(%esp)
 8048d3a:	8d 43 01             	lea    0x1(%ebx),%eax
 8048d3d:	89 44 24 04          	mov    %eax,0x4(%esp)
 8048d41:	89 14 24             	mov    %edx,(%esp)
 8048d44:	e8 b3 ff ff ff       	call   8048cfc <func4>
 8048d49:	01 d8                	add    %ebx,%eax
 8048d4b:	83 c4 14             	add    $0x14,%esp
 8048d4e:	5b                   	pop    %ebx
 8048d4f:	5d                   	pop    %ebp
 8048d50:	c3                   	ret    

08048d51 <phase_4>:
 8048d51:	55                   	push   %ebp
 8048d52:	89 e5                	mov    %esp,%ebp
 8048d54:	83 ec 28             	sub    $0x28,%esp
 8048d57:	8d 45 f4             	lea    -0xc(%ebp),%eax
 8048d5a:	89 44 24 0c          	mov    %eax,0xc(%esp)
 8048d5e:	8d 45 f0             	lea    -0x10(%ebp),%eax
 8048d61:	89 44 24 08          	mov    %eax,0x8(%esp)
 8048d65:	c7 44 24 04 77 a6 04 	movl   $0x804a677,0x4(%esp)
 8048d6c:	08 
 8048d6d:	8b 45 08             	mov    0x8(%ebp),%eax
 8048d70:	89 04 24             	mov    %eax,(%esp)
 8048d73:	e8 e8 fa ff ff       	call   8048860 <__isoc99_sscanf@plt>
 8048d78:	83 f8 02             	cmp    $0x2,%eax
 8048d7b:	75 06                	jne    8048d83 <phase_4+0x32>
 8048d7d:	83 7d f0 0e          	cmpl   $0xe,-0x10(%ebp)
 8048d81:	76 05                	jbe    8048d88 <phase_4+0x37>
 8048d83:	e8 d0 04 00 00       	call   8049258 <explode_bomb>
 8048d88:	c7 44 24 08 0e 00 00 	movl   $0xe,0x8(%esp)
 8048d8f:	00 
 8048d90:	c7 44 24 04 00 00 00 	movl   $0x0,0x4(%esp)
 8048d97:	00 
 8048d98:	8b 45 f0             	mov    -0x10(%ebp),%eax
 8048d9b:	89 04 24             	mov    %eax,(%esp)
 8048d9e:	e8 59 ff ff ff       	call   8048cfc <func4>
 8048da3:	83 f8 12             	cmp    $0x12,%eax
 8048da6:	75 06                	jne    8048dae <phase_4+0x5d>
 8048da8:	83 7d f4 12          	cmpl   $0x12,-0xc(%ebp)
 8048dac:	74 05                	je     8048db3 <phase_4+0x62>
 8048dae:	e8 a5 04 00 00       	call   8049258 <explode_bomb>
 8048db3:	c9                   	leave  
 8048db4:	c3                   	ret    

08048db5 <phase_5>:
 8048db5:	55                   	push   %ebp
 8048db6:	89 e5                	mov    %esp,%ebp
 8048db8:	83 ec 28             	sub    $0x28,%esp
 8048dbb:	8d 45 f4             	lea    -0xc(%ebp),%eax
 8048dbe:	89 44 24 0c          	mov    %eax,0xc(%esp)
 8048dc2:	8d 45 f0             	lea    -0x10(%ebp),%eax
 8048dc5:	89 44 24 08          	mov    %eax,0x8(%esp)
 8048dc9:	c7 44 24 04 77 a6 04 	movl   $0x804a677,0x4(%esp)
 8048dd0:	08 
 8048dd1:	8b 45 08             	mov    0x8(%ebp),%eax
 8048dd4:	89 04 24             	mov    %eax,(%esp)
 8048dd7:	e8 84 fa ff ff       	call   8048860 <__isoc99_sscanf@plt>
 8048ddc:	83 f8 01             	cmp    $0x1,%eax
 8048ddf:	7f 05                	jg     8048de6 <phase_5+0x31>
 8048de1:	e8 72 04 00 00       	call   8049258 <explode_bomb>
 8048de6:	8b 45 f0             	mov    -0x10(%ebp),%eax
 8048de9:	83 e0 0f             	and    $0xf,%eax
 8048dec:	89 45 f0             	mov    %eax,-0x10(%ebp)
 8048def:	83 f8 0f             	cmp    $0xf,%eax
 8048df2:	74 26                	je     8048e1a <phase_5+0x65>
 8048df4:	b9 00 00 00 00       	mov    $0x0,%ecx
 8048df9:	ba 00 00 00 00       	mov    $0x0,%edx
 8048dfe:	42                   	inc    %edx
 8048dff:	8b 04 85 80 a4 04 08 	mov    0x804a480(,%eax,4),%eax
 8048e06:	01 c1                	add    %eax,%ecx
 8048e08:	83 f8 0f             	cmp    $0xf,%eax
 8048e0b:	75 f1                	jne    8048dfe <phase_5+0x49>
 8048e0d:	89 45 f0             	mov    %eax,-0x10(%ebp)
 8048e10:	83 fa 0f             	cmp    $0xf,%edx
 8048e13:	75 05                	jne    8048e1a <phase_5+0x65>
 8048e15:	3b 4d f4             	cmp    -0xc(%ebp),%ecx
 8048e18:	74 05                	je     8048e1f <phase_5+0x6a>
 8048e1a:	e8 39 04 00 00       	call   8049258 <explode_bomb>
 8048e1f:	c9                   	leave  
 8048e20:	c3                   	ret    

08048e21 <phase_6>:
 8048e21:	55                   	push   %ebp
 8048e22:	89 e5                	mov    %esp,%ebp
 8048e24:	56                   	push   %esi
 8048e25:	53                   	push   %ebx
 8048e26:	83 ec 40             	sub    $0x40,%esp
 8048e29:	8d 45 c8             	lea    -0x38(%ebp),%eax
 8048e2c:	89 44 24 04          	mov    %eax,0x4(%esp)
 8048e30:	8b 45 08             	mov    0x8(%ebp),%eax
 8048e33:	89 04 24             	mov    %eax,(%esp)
 8048e36:	e8 5f 04 00 00       	call   804929a <read_six_numbers>
 8048e3b:	be 00 00 00 00       	mov    $0x0,%esi
 8048e40:	8b 44 b5 c8          	mov    -0x38(%ebp,%esi,4),%eax
 8048e44:	48                   	dec    %eax
 8048e45:	83 f8 05             	cmp    $0x5,%eax
 8048e48:	76 05                	jbe    8048e4f <phase_6+0x2e>
 8048e4a:	e8 09 04 00 00       	call   8049258 <explode_bomb>
 8048e4f:	46                   	inc    %esi
 8048e50:	83 fe 06             	cmp    $0x6,%esi
 8048e53:	75 07                	jne    8048e5c <phase_6+0x3b>
 8048e55:	bb 00 00 00 00       	mov    $0x0,%ebx
 8048e5a:	eb 32                	jmp    8048e8e <phase_6+0x6d>
 8048e5c:	89 f3                	mov    %esi,%ebx
 8048e5e:	8b 44 9d c8          	mov    -0x38(%ebp,%ebx,4),%eax
 8048e62:	39 44 b5 c4          	cmp    %eax,-0x3c(%ebp,%esi,4)
 8048e66:	75 05                	jne    8048e6d <phase_6+0x4c>
 8048e68:	e8 eb 03 00 00       	call   8049258 <explode_bomb>
 8048e6d:	43                   	inc    %ebx
 8048e6e:	83 fb 05             	cmp    $0x5,%ebx
 8048e71:	7e eb                	jle    8048e5e <phase_6+0x3d>
 8048e73:	eb cb                	jmp    8048e40 <phase_6+0x1f>
 8048e75:	8b 52 08             	mov    0x8(%edx),%edx
 8048e78:	40                   	inc    %eax
 8048e79:	39 c8                	cmp    %ecx,%eax
 8048e7b:	75 f8                	jne    8048e75 <phase_6+0x54>
 8048e7d:	eb 05                	jmp    8048e84 <phase_6+0x63>
 8048e7f:	ba 54 c1 04 08       	mov    $0x804c154,%edx
 8048e84:	89 54 b5 e0          	mov    %edx,-0x20(%ebp,%esi,4)
 8048e88:	43                   	inc    %ebx
 8048e89:	83 fb 06             	cmp    $0x6,%ebx
 8048e8c:	74 17                	je     8048ea5 <phase_6+0x84>
 8048e8e:	89 de                	mov    %ebx,%esi
 8048e90:	8b 4c 9d c8          	mov    -0x38(%ebp,%ebx,4),%ecx
 8048e94:	83 f9 01             	cmp    $0x1,%ecx
 8048e97:	7e e6                	jle    8048e7f <phase_6+0x5e>
 8048e99:	b8 01 00 00 00       	mov    $0x1,%eax
 8048e9e:	ba 54 c1 04 08       	mov    $0x804c154,%edx
 8048ea3:	eb d0                	jmp    8048e75 <phase_6+0x54>
 8048ea5:	8b 5d e0             	mov    -0x20(%ebp),%ebx
 8048ea8:	8d 45 e4             	lea    -0x1c(%ebp),%eax
 8048eab:	8d 75 f8             	lea    -0x8(%ebp),%esi
 8048eae:	89 d9                	mov    %ebx,%ecx
 8048eb0:	8b 10                	mov    (%eax),%edx
 8048eb2:	89 51 08             	mov    %edx,0x8(%ecx)
 8048eb5:	83 c0 04             	add    $0x4,%eax
 8048eb8:	39 f0                	cmp    %esi,%eax
 8048eba:	74 04                	je     8048ec0 <phase_6+0x9f>
 8048ebc:	89 d1                	mov    %edx,%ecx
 8048ebe:	eb f0                	jmp    8048eb0 <phase_6+0x8f>
 8048ec0:	c7 42 08 00 00 00 00 	movl   $0x0,0x8(%edx)
 8048ec7:	be 05 00 00 00       	mov    $0x5,%esi
 8048ecc:	8b 43 08             	mov    0x8(%ebx),%eax
 8048ecf:	8b 00                	mov    (%eax),%eax
 8048ed1:	39 03                	cmp    %eax,(%ebx)
 8048ed3:	7e 05                	jle    8048eda <phase_6+0xb9>
 8048ed5:	e8 7e 03 00 00       	call   8049258 <explode_bomb>
 8048eda:	8b 5b 08             	mov    0x8(%ebx),%ebx
 8048edd:	4e                   	dec    %esi
 8048ede:	75 ec                	jne    8048ecc <phase_6+0xab>
 8048ee0:	83 c4 40             	add    $0x40,%esp
 8048ee3:	5b                   	pop    %ebx
 8048ee4:	5e                   	pop    %esi
 8048ee5:	5d                   	pop    %ebp
 8048ee6:	c3                   	ret    

08048ee7 <fun7>:
 8048ee7:	55                   	push   %ebp
 8048ee8:	89 e5                	mov    %esp,%ebp
 8048eea:	53                   	push   %ebx
 8048eeb:	83 ec 14             	sub    $0x14,%esp
 8048eee:	8b 55 08             	mov    0x8(%ebp),%edx
 8048ef1:	8b 4d 0c             	mov    0xc(%ebp),%ecx
 8048ef4:	85 d2                	test   %edx,%edx
 8048ef6:	74 37                	je     8048f2f <fun7+0x48>
 8048ef8:	8b 1a                	mov    (%edx),%ebx
 8048efa:	39 cb                	cmp    %ecx,%ebx
 8048efc:	7e 13                	jle    8048f11 <fun7+0x2a>
 8048efe:	89 4c 24 04          	mov    %ecx,0x4(%esp)
 8048f02:	8b 42 04             	mov    0x4(%edx),%eax
 8048f05:	89 04 24             	mov    %eax,(%esp)
 8048f08:	e8 da ff ff ff       	call   8048ee7 <fun7>
 8048f0d:	01 c0                	add    %eax,%eax
 8048f0f:	eb 23                	jmp    8048f34 <fun7+0x4d>
 8048f11:	b8 00 00 00 00       	mov    $0x0,%eax
 8048f16:	39 cb                	cmp    %ecx,%ebx
 8048f18:	74 1a                	je     8048f34 <fun7+0x4d>
 8048f1a:	89 4c 24 04          	mov    %ecx,0x4(%esp)
 8048f1e:	8b 42 08             	mov    0x8(%edx),%eax
 8048f21:	89 04 24             	mov    %eax,(%esp)
 8048f24:	e8 be ff ff ff       	call   8048ee7 <fun7>
 8048f29:	8d 44 00 01          	lea    0x1(%eax,%eax,1),%eax
 8048f2d:	eb 05                	jmp    8048f34 <fun7+0x4d>
 8048f2f:	b8 ff ff ff ff       	mov    $0xffffffff,%eax
 8048f34:	83 c4 14             	add    $0x14,%esp
 8048f37:	5b                   	pop    %ebx
 8048f38:	5d                   	pop    %ebp
 8048f39:	c3                   	ret    

08048f3a <secret_phase>:
 8048f3a:	55                   	push   %ebp
 8048f3b:	89 e5                	mov    %esp,%ebp
 8048f3d:	53                   	push   %ebx
 8048f3e:	83 ec 14             	sub    $0x14,%esp
 8048f41:	e8 a3 03 00 00       	call   80492e9 <read_line>
 8048f46:	c7 44 24 08 0a 00 00 	movl   $0xa,0x8(%esp)
 8048f4d:	00 
 8048f4e:	c7 44 24 04 00 00 00 	movl   $0x0,0x4(%esp)
 8048f55:	00 
 8048f56:	89 04 24             	mov    %eax,(%esp)
 8048f59:	e8 72 f9 ff ff       	call   80488d0 <strtol@plt>
 8048f5e:	89 c3                	mov    %eax,%ebx
 8048f60:	8d 40 ff             	lea    -0x1(%eax),%eax
 8048f63:	3d e8 03 00 00       	cmp    $0x3e8,%eax
 8048f68:	76 05                	jbe    8048f6f <secret_phase+0x35>
 8048f6a:	e8 e9 02 00 00       	call   8049258 <explode_bomb>
 8048f6f:	89 5c 24 04          	mov    %ebx,0x4(%esp)
 8048f73:	c7 04 24 a0 c0 04 08 	movl   $0x804c0a0,(%esp)
 8048f7a:	e8 68 ff ff ff       	call   8048ee7 <fun7>
 8048f7f:	83 f8 03             	cmp    $0x3,%eax
 8048f82:	74 05                	je     8048f89 <secret_phase+0x4f>
 8048f84:	e8 cf 02 00 00       	call   8049258 <explode_bomb>
 8048f89:	c7 04 24 14 a4 04 08 	movl   $0x804a414,(%esp)
 8048f90:	e8 5b f8 ff ff       	call   80487f0 <puts@plt>
 8048f95:	e8 46 04 00 00       	call   80493e0 <phase_defused>
 8048f9a:	83 c4 14             	add    $0x14,%esp
 8048f9d:	5b                   	pop    %ebx
 8048f9e:	5d                   	pop    %ebp
 8048f9f:	c3                   	ret    

08048fa0 <sig_handler>:
 8048fa0:	55                   	push   %ebp
 8048fa1:	89 e5                	mov    %esp,%ebp
 8048fa3:	83 ec 18             	sub    $0x18,%esp
 8048fa6:	c7 04 24 c0 a4 04 08 	movl   $0x804a4c0,(%esp)
 8048fad:	e8 3e f8 ff ff       	call   80487f0 <puts@plt>
 8048fb2:	c7 04 24 03 00 00 00 	movl   $0x3,(%esp)
 8048fb9:	e8 e2 f7 ff ff       	call   80487a0 <sleep@plt>
 8048fbe:	c7 44 24 04 0d a6 04 	movl   $0x804a60d,0x4(%esp)
 8048fc5:	08 
 8048fc6:	c7 04 24 01 00 00 00 	movl   $0x1,(%esp)
 8048fcd:	e8 be f8 ff ff       	call   8048890 <__printf_chk@plt>
 8048fd2:	a1 e0 c7 04 08       	mov    0x804c7e0,%eax
 8048fd7:	89 04 24             	mov    %eax,(%esp)
 8048fda:	e8 91 f7 ff ff       	call   8048770 <fflush@plt>
 8048fdf:	c7 04 24 01 00 00 00 	movl   $0x1,(%esp)
 8048fe6:	e8 b5 f7 ff ff       	call   80487a0 <sleep@plt>
 8048feb:	c7 04 24 15 a6 04 08 	movl   $0x804a615,(%esp)
 8048ff2:	e8 f9 f7 ff ff       	call   80487f0 <puts@plt>
 8048ff7:	c7 04 24 10 00 00 00 	movl   $0x10,(%esp)
 8048ffe:	e8 2d f8 ff ff       	call   8048830 <exit@plt>

08049003 <invalid_phase>:
 8049003:	55                   	push   %ebp
 8049004:	89 e5                	mov    %esp,%ebp
 8049006:	83 ec 18             	sub    $0x18,%esp
 8049009:	8b 45 08             	mov    0x8(%ebp),%eax
 804900c:	89 44 24 08          	mov    %eax,0x8(%esp)
 8049010:	c7 44 24 04 1d a6 04 	movl   $0x804a61d,0x4(%esp)
 8049017:	08 
 8049018:	c7 04 24 01 00 00 00 	movl   $0x1,(%esp)
 804901f:	e8 6c f8 ff ff       	call   8048890 <__printf_chk@plt>
 8049024:	c7 04 24 08 00 00 00 	movl   $0x8,(%esp)
 804902b:	e8 00 f8 ff ff       	call   8048830 <exit@plt>

08049030 <string_length>:
 8049030:	55                   	push   %ebp
 8049031:	89 e5                	mov    %esp,%ebp
 8049033:	8b 55 08             	mov    0x8(%ebp),%edx
 8049036:	80 3a 00             	cmpb   $0x0,(%edx)
 8049039:	74 0e                	je     8049049 <string_length+0x19>
 804903b:	b8 00 00 00 00       	mov    $0x0,%eax
 8049040:	40                   	inc    %eax
 8049041:	80 3c 02 00          	cmpb   $0x0,(%edx,%eax,1)
 8049045:	75 f9                	jne    8049040 <string_length+0x10>
 8049047:	eb 05                	jmp    804904e <string_length+0x1e>
 8049049:	b8 00 00 00 00       	mov    $0x0,%eax
 804904e:	5d                   	pop    %ebp
 804904f:	c3                   	ret    

08049050 <strings_not_equal>:
 8049050:	55                   	push   %ebp
 8049051:	89 e5                	mov    %esp,%ebp
 8049053:	57                   	push   %edi
 8049054:	56                   	push   %esi
 8049055:	53                   	push   %ebx
 8049056:	83 ec 04             	sub    $0x4,%esp
 8049059:	8b 5d 08             	mov    0x8(%ebp),%ebx
 804905c:	8b 75 0c             	mov    0xc(%ebp),%esi
 804905f:	89 1c 24             	mov    %ebx,(%esp)
 8049062:	e8 c9 ff ff ff       	call   8049030 <string_length>
 8049067:	89 c7                	mov    %eax,%edi
 8049069:	89 34 24             	mov    %esi,(%esp)
 804906c:	e8 bf ff ff ff       	call   8049030 <string_length>
 8049071:	ba 01 00 00 00       	mov    $0x1,%edx
 8049076:	39 c7                	cmp    %eax,%edi
 8049078:	75 32                	jne    80490ac <strings_not_equal+0x5c>
 804907a:	8a 03                	mov    (%ebx),%al
 804907c:	84 c0                	test   %al,%al
 804907e:	74 19                	je     8049099 <strings_not_equal+0x49>
 8049080:	3a 06                	cmp    (%esi),%al
 8049082:	74 06                	je     804908a <strings_not_equal+0x3a>
 8049084:	eb 1a                	jmp    80490a0 <strings_not_equal+0x50>
 8049086:	3a 06                	cmp    (%esi),%al
 8049088:	75 1d                	jne    80490a7 <strings_not_equal+0x57>
 804908a:	43                   	inc    %ebx
 804908b:	46                   	inc    %esi
 804908c:	8a 03                	mov    (%ebx),%al
 804908e:	84 c0                	test   %al,%al
 8049090:	75 f4                	jne    8049086 <strings_not_equal+0x36>
 8049092:	ba 00 00 00 00       	mov    $0x0,%edx
 8049097:	eb 13                	jmp    80490ac <strings_not_equal+0x5c>
 8049099:	ba 00 00 00 00       	mov    $0x0,%edx
 804909e:	eb 0c                	jmp    80490ac <strings_not_equal+0x5c>
 80490a0:	ba 01 00 00 00       	mov    $0x1,%edx
 80490a5:	eb 05                	jmp    80490ac <strings_not_equal+0x5c>
 80490a7:	ba 01 00 00 00       	mov    $0x1,%edx
 80490ac:	89 d0                	mov    %edx,%eax
 80490ae:	83 c4 04             	add    $0x4,%esp
 80490b1:	5b                   	pop    %ebx
 80490b2:	5e                   	pop    %esi
 80490b3:	5f                   	pop    %edi
 80490b4:	5d                   	pop    %ebp
 80490b5:	c3                   	ret    

080490b6 <initialize_bomb>:
 80490b6:	55                   	push   %ebp
 80490b7:	89 e5                	mov    %esp,%ebp
 80490b9:	83 ec 18             	sub    $0x18,%esp
 80490bc:	c7 44 24 04 a0 8f 04 	movl   $0x8048fa0,0x4(%esp)
 80490c3:	08 
 80490c4:	c7 04 24 02 00 00 00 	movl   $0x2,(%esp)
 80490cb:	e8 c0 f6 ff ff       	call   8048790 <signal@plt>
 80490d0:	c9                   	leave  
 80490d1:	c3                   	ret    

080490d2 <initialize_bomb_solve>:
 80490d2:	55                   	push   %ebp
 80490d3:	89 e5                	mov    %esp,%ebp
 80490d5:	5d                   	pop    %ebp
 80490d6:	c3                   	ret    

080490d7 <blank_line>:
 80490d7:	55                   	push   %ebp
 80490d8:	89 e5                	mov    %esp,%ebp
 80490da:	56                   	push   %esi
 80490db:	53                   	push   %ebx
 80490dc:	8b 75 08             	mov    0x8(%ebp),%esi
 80490df:	eb 12                	jmp    80490f3 <blank_line+0x1c>
 80490e1:	e8 1a f8 ff ff       	call   8048900 <__ctype_b_loc@plt>
 80490e6:	46                   	inc    %esi
 80490e7:	0f be db             	movsbl %bl,%ebx
 80490ea:	8b 00                	mov    (%eax),%eax
 80490ec:	f6 44 58 01 20       	testb  $0x20,0x1(%eax,%ebx,2)
 80490f1:	74 0d                	je     8049100 <blank_line+0x29>
 80490f3:	8a 1e                	mov    (%esi),%bl
 80490f5:	84 db                	test   %bl,%bl
 80490f7:	75 e8                	jne    80490e1 <blank_line+0xa>
 80490f9:	b8 01 00 00 00       	mov    $0x1,%eax
 80490fe:	eb 05                	jmp    8049105 <blank_line+0x2e>
 8049100:	b8 00 00 00 00       	mov    $0x0,%eax
 8049105:	5b                   	pop    %ebx
 8049106:	5e                   	pop    %esi
 8049107:	5d                   	pop    %ebp
 8049108:	c3                   	ret    

08049109 <skip>:
 8049109:	55                   	push   %ebp
 804910a:	89 e5                	mov    %esp,%ebp
 804910c:	53                   	push   %ebx
 804910d:	83 ec 14             	sub    $0x14,%esp
 8049110:	a1 ec c7 04 08       	mov    0x804c7ec,%eax
 8049115:	89 44 24 08          	mov    %eax,0x8(%esp)
 8049119:	c7 44 24 04 50 00 00 	movl   $0x50,0x4(%esp)
 8049120:	00 
 8049121:	a1 e8 c7 04 08       	mov    0x804c7e8,%eax
 8049126:	8d 04 80             	lea    (%eax,%eax,4),%eax
 8049129:	c1 e0 04             	shl    $0x4,%eax
 804912c:	05 00 c8 04 08       	add    $0x804c800,%eax
 8049131:	89 04 24             	mov    %eax,(%esp)
 8049134:	e8 47 f6 ff ff       	call   8048780 <fgets@plt>
 8049139:	89 c3                	mov    %eax,%ebx
 804913b:	85 c0                	test   %eax,%eax
 804913d:	74 0c                	je     804914b <skip+0x42>
 804913f:	89 04 24             	mov    %eax,(%esp)
 8049142:	e8 90 ff ff ff       	call   80490d7 <blank_line>
 8049147:	85 c0                	test   %eax,%eax
 8049149:	75 c5                	jne    8049110 <skip+0x7>
 804914b:	89 d8                	mov    %ebx,%eax
 804914d:	83 c4 14             	add    $0x14,%esp
 8049150:	5b                   	pop    %ebx
 8049151:	5d                   	pop    %ebp
 8049152:	c3                   	ret    

08049153 <send_msg>:
 8049153:	55                   	push   %ebp
 8049154:	89 e5                	mov    %esp,%ebp
 8049156:	57                   	push   %edi
 8049157:	53                   	push   %ebx
 8049158:	81 ec 30 40 00 00    	sub    $0x4030,%esp
 804915e:	65 a1 14 00 00 00    	mov    %gs:0x14,%eax
 8049164:	89 45 f4             	mov    %eax,-0xc(%ebp)
 8049167:	31 c0                	xor    %eax,%eax
 8049169:	8b 15 e8 c7 04 08    	mov    0x804c7e8,%edx
 804916f:	8d 5c 92 fb          	lea    -0x5(%edx,%edx,4),%ebx
 8049173:	c1 e3 04             	shl    $0x4,%ebx
 8049176:	81 c3 00 c8 04 08    	add    $0x804c800,%ebx
 804917c:	89 df                	mov    %ebx,%edi
 804917e:	b9 ff ff ff ff       	mov    $0xffffffff,%ecx
 8049183:	f2 ae                	repnz scas %es:(%edi),%al
 8049185:	f7 d1                	not    %ecx
 8049187:	83 c1 63             	add    $0x63,%ecx
 804918a:	81 f9 00 20 00 00    	cmp    $0x2000,%ecx
 8049190:	76 20                	jbe    80491b2 <send_msg+0x5f>
 8049192:	c7 44 24 04 f8 a4 04 	movl   $0x804a4f8,0x4(%esp)
 8049199:	08 
 804919a:	c7 04 24 01 00 00 00 	movl   $0x1,(%esp)
 80491a1:	e8 ea f6 ff ff       	call   8048890 <__printf_chk@plt>
 80491a6:	c7 04 24 08 00 00 00 	movl   $0x8,(%esp)
 80491ad:	e8 7e f6 ff ff       	call   8048830 <exit@plt>
 80491b2:	b8 36 a6 04 08       	mov    $0x804a636,%eax
 80491b7:	83 7d 08 00          	cmpl   $0x0,0x8(%ebp)
 80491bb:	74 05                	je     80491c2 <send_msg+0x6f>
 80491bd:	b8 2e a6 04 08       	mov    $0x804a62e,%eax
 80491c2:	89 5c 24 1c          	mov    %ebx,0x1c(%esp)
 80491c6:	89 54 24 18          	mov    %edx,0x18(%esp)
 80491ca:	89 44 24 14          	mov    %eax,0x14(%esp)
 80491ce:	a1 a0 c5 04 08       	mov    0x804c5a0,%eax
 80491d3:	89 44 24 10          	mov    %eax,0x10(%esp)
 80491d7:	c7 44 24 0c 3f a6 04 	movl   $0x804a63f,0xc(%esp)
 80491de:	08 
 80491df:	c7 44 24 08 00 20 00 	movl   $0x2000,0x8(%esp)
 80491e6:	00 
 80491e7:	c7 44 24 04 01 00 00 	movl   $0x1,0x4(%esp)
 80491ee:	00 
 80491ef:	8d 9d f4 bf ff ff    	lea    -0x400c(%ebp),%ebx
 80491f5:	89 1c 24             	mov    %ebx,(%esp)
 80491f8:	e8 13 f7 ff ff       	call   8048910 <__sprintf_chk@plt>
 80491fd:	8d 85 f4 df ff ff    	lea    -0x200c(%ebp),%eax
 8049203:	89 44 24 0c          	mov    %eax,0xc(%esp)
 8049207:	c7 44 24 08 00 00 00 	movl   $0x0,0x8(%esp)
 804920e:	00 
 804920f:	89 5c 24 04          	mov    %ebx,0x4(%esp)
 8049213:	c7 04 24 a0 c1 04 08 	movl   $0x804c1a0,(%esp)
 804921a:	e8 57 0f 00 00       	call   804a176 <driver_post>
 804921f:	85 c0                	test   %eax,%eax
 8049221:	79 1a                	jns    804923d <send_msg+0xea>
 8049223:	8d 85 f4 df ff ff    	lea    -0x200c(%ebp),%eax
 8049229:	89 04 24             	mov    %eax,(%esp)
 804922c:	e8 bf f5 ff ff       	call   80487f0 <puts@plt>
 8049231:	c7 04 24 00 00 00 00 	movl   $0x0,(%esp)
 8049238:	e8 f3 f5 ff ff       	call   8048830 <exit@plt>
 804923d:	8b 45 f4             	mov    -0xc(%ebp),%eax
 8049240:	65 33 05 14 00 00 00 	xor    %gs:0x14,%eax
 8049247:	74 05                	je     804924e <send_msg+0xfb>
 8049249:	e8 72 f5 ff ff       	call   80487c0 <__stack_chk_fail@plt>
 804924e:	81 c4 30 40 00 00    	add    $0x4030,%esp
 8049254:	5b                   	pop    %ebx
 8049255:	5f                   	pop    %edi
 8049256:	5d                   	pop    %ebp
 8049257:	c3                   	ret    

08049258 <explode_bomb>:
 8049258:	55                   	push   %ebp
 8049259:	89 e5                	mov    %esp,%ebp
 804925b:	83 ec 18             	sub    $0x18,%esp
 804925e:	c7 04 24 4b a6 04 08 	movl   $0x804a64b,(%esp)
 8049265:	e8 86 f5 ff ff       	call   80487f0 <puts@plt>
 804926a:	c7 04 24 54 a6 04 08 	movl   $0x804a654,(%esp)
 8049271:	e8 7a f5 ff ff       	call   80487f0 <puts@plt>
 8049276:	c7 04 24 00 00 00 00 	movl   $0x0,(%esp)
 804927d:	e8 d1 fe ff ff       	call   8049153 <send_msg>
 8049282:	c7 04 24 1c a5 04 08 	movl   $0x804a51c,(%esp)
 8049289:	e8 62 f5 ff ff       	call   80487f0 <puts@plt>
 804928e:	c7 04 24 08 00 00 00 	movl   $0x8,(%esp)
 8049295:	e8 96 f5 ff ff       	call   8048830 <exit@plt>

0804929a <read_six_numbers>:
 804929a:	55                   	push   %ebp
 804929b:	89 e5                	mov    %esp,%ebp
 804929d:	83 ec 28             	sub    $0x28,%esp
 80492a0:	8b 45 0c             	mov    0xc(%ebp),%eax
 80492a3:	8d 50 14             	lea    0x14(%eax),%edx
 80492a6:	89 54 24 1c          	mov    %edx,0x1c(%esp)
 80492aa:	8d 50 10             	lea    0x10(%eax),%edx
 80492ad:	89 54 24 18          	mov    %edx,0x18(%esp)
 80492b1:	8d 50 0c             	lea    0xc(%eax),%edx
 80492b4:	89 54 24 14          	mov    %edx,0x14(%esp)
 80492b8:	8d 50 08             	lea    0x8(%eax),%edx
 80492bb:	89 54 24 10          	mov    %edx,0x10(%esp)
 80492bf:	8d 50 04             	lea    0x4(%eax),%edx
 80492c2:	89 54 24 0c          	mov    %edx,0xc(%esp)
 80492c6:	89 44 24 08          	mov    %eax,0x8(%esp)
 80492ca:	c7 44 24 04 6b a6 04 	movl   $0x804a66b,0x4(%esp)
 80492d1:	08 
 80492d2:	8b 45 08             	mov    0x8(%ebp),%eax
 80492d5:	89 04 24             	mov    %eax,(%esp)
 80492d8:	e8 83 f5 ff ff       	call   8048860 <__isoc99_sscanf@plt>
 80492dd:	83 f8 05             	cmp    $0x5,%eax
 80492e0:	7f 05                	jg     80492e7 <read_six_numbers+0x4d>
 80492e2:	e8 71 ff ff ff       	call   8049258 <explode_bomb>
 80492e7:	c9                   	leave  
 80492e8:	c3                   	ret    

080492e9 <read_line>:
 80492e9:	55                   	push   %ebp
 80492ea:	89 e5                	mov    %esp,%ebp
 80492ec:	57                   	push   %edi
 80492ed:	56                   	push   %esi
 80492ee:	53                   	push   %ebx
 80492ef:	83 ec 1c             	sub    $0x1c,%esp
 80492f2:	e8 12 fe ff ff       	call   8049109 <skip>
 80492f7:	85 c0                	test   %eax,%eax
 80492f9:	75 6c                	jne    8049367 <read_line+0x7e>
 80492fb:	a1 c4 c7 04 08       	mov    0x804c7c4,%eax
 8049300:	39 05 ec c7 04 08    	cmp    %eax,0x804c7ec
 8049306:	75 18                	jne    8049320 <read_line+0x37>
 8049308:	c7 04 24 7d a6 04 08 	movl   $0x804a67d,(%esp)
 804930f:	e8 dc f4 ff ff       	call   80487f0 <puts@plt>
 8049314:	c7 04 24 08 00 00 00 	movl   $0x8,(%esp)
 804931b:	e8 10 f5 ff ff       	call   8048830 <exit@plt>
 8049320:	c7 04 24 9b a6 04 08 	movl   $0x804a69b,(%esp)
 8049327:	e8 b4 f4 ff ff       	call   80487e0 <getenv@plt>
 804932c:	85 c0                	test   %eax,%eax
 804932e:	74 0c                	je     804933c <read_line+0x53>
 8049330:	c7 04 24 00 00 00 00 	movl   $0x0,(%esp)
 8049337:	e8 f4 f4 ff ff       	call   8048830 <exit@plt>
 804933c:	a1 c4 c7 04 08       	mov    0x804c7c4,%eax
 8049341:	a3 ec c7 04 08       	mov    %eax,0x804c7ec
 8049346:	e8 be fd ff ff       	call   8049109 <skip>
 804934b:	85 c0                	test   %eax,%eax
 804934d:	75 18                	jne    8049367 <read_line+0x7e>
 804934f:	c7 04 24 7d a6 04 08 	movl   $0x804a67d,(%esp)
 8049356:	e8 95 f4 ff ff       	call   80487f0 <puts@plt>
 804935b:	c7 04 24 00 00 00 00 	movl   $0x0,(%esp)
 8049362:	e8 c9 f4 ff ff       	call   8048830 <exit@plt>
 8049367:	8b 15 e8 c7 04 08    	mov    0x804c7e8,%edx
 804936d:	8d 1c 92             	lea    (%edx,%edx,4),%ebx
 8049370:	c1 e3 04             	shl    $0x4,%ebx
 8049373:	81 c3 00 c8 04 08    	add    $0x804c800,%ebx
 8049379:	89 df                	mov    %ebx,%edi
 804937b:	b0 00                	mov    $0x0,%al
 804937d:	b9 ff ff ff ff       	mov    $0xffffffff,%ecx
 8049382:	f2 ae                	repnz scas %es:(%edi),%al
 8049384:	f7 d1                	not    %ecx
 8049386:	49                   	dec    %ecx
 8049387:	83 f9 4e             	cmp    $0x4e,%ecx
 804938a:	7e 35                	jle    80493c1 <read_line+0xd8>
 804938c:	c7 04 24 a6 a6 04 08 	movl   $0x804a6a6,(%esp)
 8049393:	e8 58 f4 ff ff       	call   80487f0 <puts@plt>
 8049398:	a1 e8 c7 04 08       	mov    0x804c7e8,%eax
 804939d:	8d 50 01             	lea    0x1(%eax),%edx
 80493a0:	89 15 e8 c7 04 08    	mov    %edx,0x804c7e8
 80493a6:	6b c0 50             	imul   $0x50,%eax,%eax
 80493a9:	05 00 c8 04 08       	add    $0x804c800,%eax
 80493ae:	be c1 a6 04 08       	mov    $0x804a6c1,%esi
 80493b3:	b9 04 00 00 00       	mov    $0x4,%ecx
 80493b8:	89 c7                	mov    %eax,%edi
 80493ba:	f3 a5                	rep movsl %ds:(%esi),%es:(%edi)
 80493bc:	e8 97 fe ff ff       	call   8049258 <explode_bomb>
 80493c1:	8d 04 92             	lea    (%edx,%edx,4),%eax
 80493c4:	c1 e0 04             	shl    $0x4,%eax
 80493c7:	c6 84 01 ff c7 04 08 	movb   $0x0,0x804c7ff(%ecx,%eax,1)
 80493ce:	00 
 80493cf:	42                   	inc    %edx
 80493d0:	89 15 e8 c7 04 08    	mov    %edx,0x804c7e8
 80493d6:	89 d8                	mov    %ebx,%eax
 80493d8:	83 c4 1c             	add    $0x1c,%esp
 80493db:	5b                   	pop    %ebx
 80493dc:	5e                   	pop    %esi
 80493dd:	5f                   	pop    %edi
 80493de:	5d                   	pop    %ebp
 80493df:	c3                   	ret    

080493e0 <phase_defused>:
 80493e0:	55                   	push   %ebp
 80493e1:	89 e5                	mov    %esp,%ebp
 80493e3:	81 ec 88 00 00 00    	sub    $0x88,%esp
 80493e9:	65 a1 14 00 00 00    	mov    %gs:0x14,%eax
 80493ef:	89 45 f4             	mov    %eax,-0xc(%ebp)
 80493f2:	31 c0                	xor    %eax,%eax
 80493f4:	c7 04 24 01 00 00 00 	movl   $0x1,(%esp)
 80493fb:	e8 53 fd ff ff       	call   8049153 <send_msg>
 8049400:	83 3d e8 c7 04 08 06 	cmpl   $0x6,0x804c7e8
 8049407:	75 7a                	jne    8049483 <phase_defused+0xa3>
 8049409:	8d 45 a4             	lea    -0x5c(%ebp),%eax
 804940c:	89 44 24 10          	mov    %eax,0x10(%esp)
 8049410:	8d 45 a0             	lea    -0x60(%ebp),%eax
 8049413:	89 44 24 0c          	mov    %eax,0xc(%esp)
 8049417:	8d 45 9c             	lea    -0x64(%ebp),%eax
 804941a:	89 44 24 08          	mov    %eax,0x8(%esp)
 804941e:	c7 44 24 04 d1 a6 04 	movl   $0x804a6d1,0x4(%esp)
 8049425:	08 
 8049426:	c7 04 24 f0 c8 04 08 	movl   $0x804c8f0,(%esp)
 804942d:	e8 2e f4 ff ff       	call   8048860 <__isoc99_sscanf@plt>
 8049432:	83 f8 03             	cmp    $0x3,%eax
 8049435:	75 34                	jne    804946b <phase_defused+0x8b>
 8049437:	c7 44 24 04 da a6 04 	movl   $0x804a6da,0x4(%esp)
 804943e:	08 
 804943f:	8d 45 a4             	lea    -0x5c(%ebp),%eax
 8049442:	89 04 24             	mov    %eax,(%esp)
 8049445:	e8 06 fc ff ff       	call   8049050 <strings_not_equal>
 804944a:	85 c0                	test   %eax,%eax
 804944c:	75 1d                	jne    804946b <phase_defused+0x8b>
 804944e:	c7 04 24 40 a5 04 08 	movl   $0x804a540,(%esp)
 8049455:	e8 96 f3 ff ff       	call   80487f0 <puts@plt>
 804945a:	c7 04 24 68 a5 04 08 	movl   $0x804a568,(%esp)
 8049461:	e8 8a f3 ff ff       	call   80487f0 <puts@plt>
 8049466:	e8 cf fa ff ff       	call   8048f3a <secret_phase>
 804946b:	c7 04 24 a0 a5 04 08 	movl   $0x804a5a0,(%esp)
 8049472:	e8 79 f3 ff ff       	call   80487f0 <puts@plt>
 8049477:	c7 04 24 cc a5 04 08 	movl   $0x804a5cc,(%esp)
 804947e:	e8 6d f3 ff ff       	call   80487f0 <puts@plt>
 8049483:	8b 45 f4             	mov    -0xc(%ebp),%eax
 8049486:	65 33 05 14 00 00 00 	xor    %gs:0x14,%eax
 804948d:	74 05                	je     8049494 <phase_defused+0xb4>
 804948f:	e8 2c f3 ff ff       	call   80487c0 <__stack_chk_fail@plt>
 8049494:	c9                   	leave  
 8049495:	c3                   	ret    

08049496 <sigalrm_handler>:
 8049496:	55                   	push   %ebp
 8049497:	89 e5                	mov    %esp,%ebp
 8049499:	83 ec 18             	sub    $0x18,%esp
 804949c:	c7 44 24 0c 00 00 00 	movl   $0x0,0xc(%esp)
 80494a3:	00 
 80494a4:	c7 44 24 08 30 a7 04 	movl   $0x804a730,0x8(%esp)
 80494ab:	08 
 80494ac:	c7 44 24 04 01 00 00 	movl   $0x1,0x4(%esp)
 80494b3:	00 
 80494b4:	a1 c0 c7 04 08       	mov    0x804c7c0,%eax
 80494b9:	89 04 24             	mov    %eax,(%esp)
 80494bc:	e8 ef f3 ff ff       	call   80488b0 <__fprintf_chk@plt>
 80494c1:	c7 04 24 01 00 00 00 	movl   $0x1,(%esp)
 80494c8:	e8 63 f3 ff ff       	call   8048830 <exit@plt>

080494cd <rio_readlineb>:
 80494cd:	55                   	push   %ebp
 80494ce:	89 e5                	mov    %esp,%ebp
 80494d0:	57                   	push   %edi
 80494d1:	56                   	push   %esi
 80494d2:	53                   	push   %ebx
 80494d3:	83 ec 4c             	sub    $0x4c,%esp
 80494d6:	89 55 d0             	mov    %edx,-0x30(%ebp)
 80494d9:	83 f9 01             	cmp    $0x1,%ecx
 80494dc:	0f 86 c2 00 00 00    	jbe    80495a4 <rio_readlineb+0xd7>
 80494e2:	89 c3                	mov    %eax,%ebx
 80494e4:	89 4d c4             	mov    %ecx,-0x3c(%ebp)
 80494e7:	c7 45 d4 01 00 00 00 	movl   $0x1,-0x2c(%ebp)
 80494ee:	8d 78 0c             	lea    0xc(%eax),%edi
 80494f1:	eb 33                	jmp    8049526 <rio_readlineb+0x59>
 80494f3:	c7 44 24 08 00 20 00 	movl   $0x2000,0x8(%esp)
 80494fa:	00 
 80494fb:	89 7c 24 04          	mov    %edi,0x4(%esp)
 80494ff:	8b 03                	mov    (%ebx),%eax
 8049501:	89 04 24             	mov    %eax,(%esp)
 8049504:	e8 57 f2 ff ff       	call   8048760 <read@plt>
 8049509:	89 43 04             	mov    %eax,0x4(%ebx)
 804950c:	85 c0                	test   %eax,%eax
 804950e:	79 0f                	jns    804951f <rio_readlineb+0x52>
 8049510:	e8 6b f3 ff ff       	call   8048880 <__errno_location@plt>
 8049515:	83 38 04             	cmpl   $0x4,(%eax)
 8049518:	74 0c                	je     8049526 <rio_readlineb+0x59>
 804951a:	e9 97 00 00 00       	jmp    80495b6 <rio_readlineb+0xe9>
 804951f:	85 c0                	test   %eax,%eax
 8049521:	74 6a                	je     804958d <rio_readlineb+0xc0>
 8049523:	89 7b 08             	mov    %edi,0x8(%ebx)
 8049526:	8b 73 04             	mov    0x4(%ebx),%esi
 8049529:	85 f6                	test   %esi,%esi
 804952b:	7e c6                	jle    80494f3 <rio_readlineb+0x26>
 804952d:	85 f6                	test   %esi,%esi
 804952f:	0f 95 c0             	setne  %al
 8049532:	25 ff 00 00 00       	and    $0xff,%eax
 8049537:	89 45 cc             	mov    %eax,-0x34(%ebp)
 804953a:	8b 4b 08             	mov    0x8(%ebx),%ecx
 804953d:	c7 44 24 0c 01 00 00 	movl   $0x1,0xc(%esp)
 8049544:	00 
 8049545:	89 44 24 08          	mov    %eax,0x8(%esp)
 8049549:	89 4d c8             	mov    %ecx,-0x38(%ebp)
 804954c:	89 4c 24 04          	mov    %ecx,0x4(%esp)
 8049550:	8d 55 e7             	lea    -0x19(%ebp),%edx
 8049553:	89 14 24             	mov    %edx,(%esp)
 8049556:	e8 b5 f2 ff ff       	call   8048810 <__memcpy_chk@plt>
 804955b:	8b 4d c8             	mov    -0x38(%ebp),%ecx
 804955e:	8b 55 cc             	mov    -0x34(%ebp),%edx
 8049561:	01 d1                	add    %edx,%ecx
 8049563:	89 4b 08             	mov    %ecx,0x8(%ebx)
 8049566:	29 d6                	sub    %edx,%esi
 8049568:	89 73 04             	mov    %esi,0x4(%ebx)
 804956b:	83 fa 01             	cmp    $0x1,%edx
 804956e:	75 12                	jne    8049582 <rio_readlineb+0xb5>
 8049570:	ff 45 d0             	incl   -0x30(%ebp)
 8049573:	8b 55 d0             	mov    -0x30(%ebp),%edx
 8049576:	8a 45 e7             	mov    -0x19(%ebp),%al
 8049579:	88 42 ff             	mov    %al,-0x1(%edx)
 804957c:	3c 0a                	cmp    $0xa,%al
 804957e:	75 17                	jne    8049597 <rio_readlineb+0xca>
 8049580:	eb 29                	jmp    80495ab <rio_readlineb+0xde>
 8049582:	83 7d cc 00          	cmpl   $0x0,-0x34(%ebp)
 8049586:	75 35                	jne    80495bd <rio_readlineb+0xf0>
 8049588:	8b 45 d4             	mov    -0x2c(%ebp),%eax
 804958b:	eb 03                	jmp    8049590 <rio_readlineb+0xc3>
 804958d:	8b 45 d4             	mov    -0x2c(%ebp),%eax
 8049590:	83 f8 01             	cmp    $0x1,%eax
 8049593:	75 16                	jne    80495ab <rio_readlineb+0xde>
 8049595:	eb 2d                	jmp    80495c4 <rio_readlineb+0xf7>
 8049597:	ff 45 d4             	incl   -0x2c(%ebp)
 804959a:	8b 45 c4             	mov    -0x3c(%ebp),%eax
 804959d:	39 45 d4             	cmp    %eax,-0x2c(%ebp)
 80495a0:	74 09                	je     80495ab <rio_readlineb+0xde>
 80495a2:	eb 82                	jmp    8049526 <rio_readlineb+0x59>
 80495a4:	c7 45 d4 01 00 00 00 	movl   $0x1,-0x2c(%ebp)
 80495ab:	8b 45 d0             	mov    -0x30(%ebp),%eax
 80495ae:	c6 00 00             	movb   $0x0,(%eax)
 80495b1:	8b 45 d4             	mov    -0x2c(%ebp),%eax
 80495b4:	eb 13                	jmp    80495c9 <rio_readlineb+0xfc>
 80495b6:	b8 ff ff ff ff       	mov    $0xffffffff,%eax
 80495bb:	eb 0c                	jmp    80495c9 <rio_readlineb+0xfc>
 80495bd:	b8 ff ff ff ff       	mov    $0xffffffff,%eax
 80495c2:	eb 05                	jmp    80495c9 <rio_readlineb+0xfc>
 80495c4:	b8 00 00 00 00       	mov    $0x0,%eax
 80495c9:	83 c4 4c             	add    $0x4c,%esp
 80495cc:	5b                   	pop    %ebx
 80495cd:	5e                   	pop    %esi
 80495ce:	5f                   	pop    %edi
 80495cf:	5d                   	pop    %ebp
 80495d0:	c3                   	ret    

080495d1 <submitr>:
 80495d1:	55                   	push   %ebp
 80495d2:	89 e5                	mov    %esp,%ebp
 80495d4:	57                   	push   %edi
 80495d5:	56                   	push   %esi
 80495d6:	53                   	push   %ebx
 80495d7:	81 ec 7c a0 00 00    	sub    $0xa07c,%esp
 80495dd:	8b 75 08             	mov    0x8(%ebp),%esi
 80495e0:	8b 45 10             	mov    0x10(%ebp),%eax
 80495e3:	89 85 b0 5f ff ff    	mov    %eax,-0xa050(%ebp)
 80495e9:	8b 45 14             	mov    0x14(%ebp),%eax
 80495ec:	89 85 ac 5f ff ff    	mov    %eax,-0xa054(%ebp)
 80495f2:	8b 45 18             	mov    0x18(%ebp),%eax
 80495f5:	89 85 a8 5f ff ff    	mov    %eax,-0xa058(%ebp)
 80495fb:	8b 5d 1c             	mov    0x1c(%ebp),%ebx
 80495fe:	8b 45 20             	mov    0x20(%ebp),%eax
 8049601:	89 85 a4 5f ff ff    	mov    %eax,-0xa05c(%ebp)
 8049607:	65 a1 14 00 00 00    	mov    %gs:0x14,%eax
 804960d:	89 45 e4             	mov    %eax,-0x1c(%ebp)
 8049610:	31 c0                	xor    %eax,%eax
 8049612:	c7 85 c4 5f ff ff 00 	movl   $0x0,-0xa03c(%ebp)
 8049619:	00 00 00 
 804961c:	c7 44 24 08 00 00 00 	movl   $0x0,0x8(%esp)
 8049623:	00 
 8049624:	c7 44 24 04 01 00 00 	movl   $0x1,0x4(%esp)
 804962b:	00 
 804962c:	c7 04 24 02 00 00 00 	movl   $0x2,(%esp)
 8049633:	e8 68 f2 ff ff       	call   80488a0 <socket@plt>
 8049638:	89 85 b4 5f ff ff    	mov    %eax,-0xa04c(%ebp)
 804963e:	85 c0                	test   %eax,%eax
 8049640:	79 77                	jns    80496b9 <submitr+0xe8>
 8049642:	8b 8d a4 5f ff ff    	mov    -0xa05c(%ebp),%ecx
 8049648:	89 cf                	mov    %ecx,%edi
 804964a:	be 54 a7 04 08       	mov    $0x804a754,%esi
 804964f:	b8 26 00 00 00       	mov    $0x26,%eax
 8049654:	f6 c1 01             	test   $0x1,%cl
 8049657:	74 14                	je     804966d <submitr+0x9c>
 8049659:	a0 54 a7 04 08       	mov    0x804a754,%al
 804965e:	88 01                	mov    %al,(%ecx)
 8049660:	8d 79 01             	lea    0x1(%ecx),%edi
 8049663:	be 55 a7 04 08       	mov    $0x804a755,%esi
 8049668:	b8 25 00 00 00       	mov    $0x25,%eax
 804966d:	f7 c7 02 00 00 00    	test   $0x2,%edi
 8049673:	74 0f                	je     8049684 <submitr+0xb3>
 8049675:	66 8b 16             	mov    (%esi),%dx
 8049678:	66 89 17             	mov    %dx,(%edi)
 804967b:	83 c7 02             	add    $0x2,%edi
 804967e:	83 c6 02             	add    $0x2,%esi
 8049681:	83 e8 02             	sub    $0x2,%eax
 8049684:	89 c1                	mov    %eax,%ecx
 8049686:	c1 e9 02             	shr    $0x2,%ecx
 8049689:	f3 a5                	rep movsl %ds:(%esi),%es:(%edi)
 804968b:	ba 00 00 00 00       	mov    $0x0,%edx
 8049690:	a8 02                	test   $0x2,%al
 8049692:	74 0b                	je     804969f <submitr+0xce>
 8049694:	66 8b 16             	mov    (%esi),%dx
 8049697:	66 89 17             	mov    %dx,(%edi)
 804969a:	ba 02 00 00 00       	mov    $0x2,%edx
 804969f:	a8 01                	test   $0x1,%al
 80496a1:	74 0c                	je     80496af <submitr+0xde>
 80496a3:	8a 04 16             	mov    (%esi,%edx,1),%al
 80496a6:	88 85 b4 5f ff ff    	mov    %al,-0xa04c(%ebp)
 80496ac:	88 04 17             	mov    %al,(%edi,%edx,1)
 80496af:	b8 ff ff ff ff       	mov    $0xffffffff,%eax
 80496b4:	e9 29 07 00 00       	jmp    8049de2 <submitr+0x811>
 80496b9:	89 34 24             	mov    %esi,(%esp)
 80496bc:	e8 ff f1 ff ff       	call   80488c0 <gethostbyname@plt>
 80496c1:	85 c0                	test   %eax,%eax
 80496c3:	0f 85 82 00 00 00    	jne    804974b <submitr+0x17a>
 80496c9:	8b 8d a4 5f ff ff    	mov    -0xa05c(%ebp),%ecx
 80496cf:	89 cf                	mov    %ecx,%edi
 80496d1:	be 7c a7 04 08       	mov    $0x804a77c,%esi
 80496d6:	b0 2f                	mov    $0x2f,%al
 80496d8:	f6 c1 01             	test   $0x1,%cl
 80496db:	74 14                	je     80496f1 <submitr+0x120>
 80496dd:	a0 7c a7 04 08       	mov    0x804a77c,%al
 80496e2:	88 01                	mov    %al,(%ecx)
 80496e4:	8d 79 01             	lea    0x1(%ecx),%edi
 80496e7:	be 7d a7 04 08       	mov    $0x804a77d,%esi
 80496ec:	b8 2e 00 00 00       	mov    $0x2e,%eax
 80496f1:	f7 c7 02 00 00 00    	test   $0x2,%edi
 80496f7:	74 0f                	je     8049708 <submitr+0x137>
 80496f9:	66 8b 16             	mov    (%esi),%dx
 80496fc:	66 89 17             	mov    %dx,(%edi)
 80496ff:	83 c7 02             	add    $0x2,%edi
 8049702:	83 c6 02             	add    $0x2,%esi
 8049705:	83 e8 02             	sub    $0x2,%eax
 8049708:	89 c1                	mov    %eax,%ecx
 804970a:	c1 e9 02             	shr    $0x2,%ecx
 804970d:	f3 a5                	rep movsl %ds:(%esi),%es:(%edi)
 804970f:	ba 00 00 00 00       	mov    $0x0,%edx
 8049714:	a8 02                	test   $0x2,%al
 8049716:	74 0b                	je     8049723 <submitr+0x152>
 8049718:	66 8b 16             	mov    (%esi),%dx
 804971b:	66 89 17             	mov    %dx,(%edi)
 804971e:	ba 02 00 00 00       	mov    $0x2,%edx
 8049723:	a8 01                	test   $0x1,%al
 8049725:	74 0c                	je     8049733 <submitr+0x162>
 8049727:	8a 04 16             	mov    (%esi,%edx,1),%al
 804972a:	88 85 b0 5f ff ff    	mov    %al,-0xa050(%ebp)
 8049730:	88 04 17             	mov    %al,(%edi,%edx,1)
 8049733:	8b 85 b4 5f ff ff    	mov    -0xa04c(%ebp),%eax
 8049739:	89 04 24             	mov    %eax,(%esp)
 804973c:	e8 af f1 ff ff       	call   80488f0 <close@plt>
 8049741:	b8 ff ff ff ff       	mov    $0xffffffff,%eax
 8049746:	e9 97 06 00 00       	jmp    8049de2 <submitr+0x811>
 804974b:	8d b5 c8 5f ff ff    	lea    -0xa038(%ebp),%esi
 8049751:	c7 85 c8 5f ff ff 00 	movl   $0x0,-0xa038(%ebp)
 8049758:	00 00 00 
 804975b:	c7 85 cc 5f ff ff 00 	movl   $0x0,-0xa034(%ebp)
 8049762:	00 00 00 
 8049765:	c7 85 d0 5f ff ff 00 	movl   $0x0,-0xa030(%ebp)
 804976c:	00 00 00 
 804976f:	c7 85 d4 5f ff ff 00 	movl   $0x0,-0xa02c(%ebp)
 8049776:	00 00 00 
 8049779:	66 c7 85 c8 5f ff ff 	movw   $0x2,-0xa038(%ebp)
 8049780:	02 00 
 8049782:	c7 44 24 0c 0c 00 00 	movl   $0xc,0xc(%esp)
 8049789:	00 
 804978a:	8b 50 0c             	mov    0xc(%eax),%edx
 804978d:	89 54 24 08          	mov    %edx,0x8(%esp)
 8049791:	8b 40 10             	mov    0x10(%eax),%eax
 8049794:	8b 00                	mov    (%eax),%eax
 8049796:	89 44 24 04          	mov    %eax,0x4(%esp)
 804979a:	8d 85 cc 5f ff ff    	lea    -0xa034(%ebp),%eax
 80497a0:	89 04 24             	mov    %eax,(%esp)
 80497a3:	e8 58 f0 ff ff       	call   8048800 <__memmove_chk@plt>
 80497a8:	8b 45 0c             	mov    0xc(%ebp),%eax
 80497ab:	66 c1 c8 08          	ror    $0x8,%ax
 80497af:	66 89 85 ca 5f ff ff 	mov    %ax,-0xa036(%ebp)
 80497b6:	c7 44 24 08 10 00 00 	movl   $0x10,0x8(%esp)
 80497bd:	00 
 80497be:	89 74 24 04          	mov    %esi,0x4(%esp)
 80497c2:	8b 85 b4 5f ff ff    	mov    -0xa04c(%ebp),%eax
 80497c8:	89 04 24             	mov    %eax,(%esp)
 80497cb:	e8 10 f1 ff ff       	call   80488e0 <connect@plt>
 80497d0:	85 c0                	test   %eax,%eax
 80497d2:	0f 89 85 00 00 00    	jns    804985d <submitr+0x28c>
 80497d8:	8b 8d a4 5f ff ff    	mov    -0xa05c(%ebp),%ecx
 80497de:	89 cf                	mov    %ecx,%edi
 80497e0:	be ac a7 04 08       	mov    $0x804a7ac,%esi
 80497e5:	b8 27 00 00 00       	mov    $0x27,%eax
 80497ea:	f6 c1 01             	test   $0x1,%cl
 80497ed:	74 14                	je     8049803 <submitr+0x232>
 80497ef:	a0 ac a7 04 08       	mov    0x804a7ac,%al
 80497f4:	88 01                	mov    %al,(%ecx)
 80497f6:	8d 79 01             	lea    0x1(%ecx),%edi
 80497f9:	be ad a7 04 08       	mov    $0x804a7ad,%esi
 80497fe:	b8 26 00 00 00       	mov    $0x26,%eax
 8049803:	f7 c7 02 00 00 00    	test   $0x2,%edi
 8049809:	74 0f                	je     804981a <submitr+0x249>
 804980b:	66 8b 16             	mov    (%esi),%dx
 804980e:	66 89 17             	mov    %dx,(%edi)
 8049811:	83 c7 02             	add    $0x2,%edi
 8049814:	83 c6 02             	add    $0x2,%esi
 8049817:	83 e8 02             	sub    $0x2,%eax
 804981a:	89 c1                	mov    %eax,%ecx
 804981c:	c1 e9 02             	shr    $0x2,%ecx
 804981f:	f3 a5                	rep movsl %ds:(%esi),%es:(%edi)
 8049821:	ba 00 00 00 00       	mov    $0x0,%edx
 8049826:	a8 02                	test   $0x2,%al
 8049828:	74 0b                	je     8049835 <submitr+0x264>
 804982a:	66 8b 16             	mov    (%esi),%dx
 804982d:	66 89 17             	mov    %dx,(%edi)
 8049830:	ba 02 00 00 00       	mov    $0x2,%edx
 8049835:	a8 01                	test   $0x1,%al
 8049837:	74 0c                	je     8049845 <submitr+0x274>
 8049839:	8a 04 16             	mov    (%esi,%edx,1),%al
 804983c:	88 85 b0 5f ff ff    	mov    %al,-0xa050(%ebp)
 8049842:	88 04 17             	mov    %al,(%edi,%edx,1)
 8049845:	8b 85 b4 5f ff ff    	mov    -0xa04c(%ebp),%eax
 804984b:	89 04 24             	mov    %eax,(%esp)
 804984e:	e8 9d f0 ff ff       	call   80488f0 <close@plt>
 8049853:	b8 ff ff ff ff       	mov    $0xffffffff,%eax
 8049858:	e9 85 05 00 00       	jmp    8049de2 <submitr+0x811>
 804985d:	89 df                	mov    %ebx,%edi
 804985f:	b0 00                	mov    $0x0,%al
 8049861:	b9 ff ff ff ff       	mov    $0xffffffff,%ecx
 8049866:	f2 ae                	repnz scas %es:(%edi),%al
 8049868:	f7 d1                	not    %ecx
 804986a:	89 ca                	mov    %ecx,%edx
 804986c:	8b bd b0 5f ff ff    	mov    -0xa050(%ebp),%edi
 8049872:	b9 ff ff ff ff       	mov    $0xffffffff,%ecx
 8049877:	f2 ae                	repnz scas %es:(%edi),%al
 8049879:	89 8d a0 5f ff ff    	mov    %ecx,-0xa060(%ebp)
 804987f:	8b bd ac 5f ff ff    	mov    -0xa054(%ebp),%edi
 8049885:	b9 ff ff ff ff       	mov    $0xffffffff,%ecx
 804988a:	f2 ae                	repnz scas %es:(%edi),%al
 804988c:	89 ce                	mov    %ecx,%esi
 804988e:	f7 d6                	not    %esi
 8049890:	8b bd a8 5f ff ff    	mov    -0xa058(%ebp),%edi
 8049896:	b9 ff ff ff ff       	mov    $0xffffffff,%ecx
 804989b:	f2 ae                	repnz scas %es:(%edi),%al
 804989d:	2b b5 a0 5f ff ff    	sub    -0xa060(%ebp),%esi
 80498a3:	29 ce                	sub    %ecx,%esi
 80498a5:	8d 44 52 fd          	lea    -0x3(%edx,%edx,2),%eax
 80498a9:	8d 44 06 7b          	lea    0x7b(%esi,%eax,1),%eax
 80498ad:	3d 00 20 00 00       	cmp    $0x2000,%eax
 80498b2:	0f 86 85 00 00 00    	jbe    804993d <submitr+0x36c>
 80498b8:	8b 8d a4 5f ff ff    	mov    -0xa05c(%ebp),%ecx
 80498be:	89 cf                	mov    %ecx,%edi
 80498c0:	be d4 a7 04 08       	mov    $0x804a7d4,%esi
 80498c5:	b8 38 00 00 00       	mov    $0x38,%eax
 80498ca:	f6 c1 01             	test   $0x1,%cl
 80498cd:	74 14                	je     80498e3 <submitr+0x312>
 80498cf:	a0 d4 a7 04 08       	mov    0x804a7d4,%al
 80498d4:	88 01                	mov    %al,(%ecx)
 80498d6:	8d 79 01             	lea    0x1(%ecx),%edi
 80498d9:	be d5 a7 04 08       	mov    $0x804a7d5,%esi
 80498de:	b8 37 00 00 00       	mov    $0x37,%eax
 80498e3:	f7 c7 02 00 00 00    	test   $0x2,%edi
 80498e9:	74 0f                	je     80498fa <submitr+0x329>
 80498eb:	66 8b 16             	mov    (%esi),%dx
 80498ee:	66 89 17             	mov    %dx,(%edi)
 80498f1:	83 c7 02             	add    $0x2,%edi
 80498f4:	83 c6 02             	add    $0x2,%esi
 80498f7:	83 e8 02             	sub    $0x2,%eax
 80498fa:	89 c1                	mov    %eax,%ecx
 80498fc:	c1 e9 02             	shr    $0x2,%ecx
 80498ff:	f3 a5                	rep movsl %ds:(%esi),%es:(%edi)
 8049901:	ba 00 00 00 00       	mov    $0x0,%edx
 8049906:	a8 02                	test   $0x2,%al
 8049908:	74 0b                	je     8049915 <submitr+0x344>
 804990a:	66 8b 16             	mov    (%esi),%dx
 804990d:	66 89 17             	mov    %dx,(%edi)
 8049910:	ba 02 00 00 00       	mov    $0x2,%edx
 8049915:	a8 01                	test   $0x1,%al
 8049917:	74 0c                	je     8049925 <submitr+0x354>
 8049919:	8a 04 16             	mov    (%esi,%edx,1),%al
 804991c:	88 85 b0 5f ff ff    	mov    %al,-0xa050(%ebp)
 8049922:	88 04 17             	mov    %al,(%edi,%edx,1)
 8049925:	8b 85 b4 5f ff ff    	mov    -0xa04c(%ebp),%eax
 804992b:	89 04 24             	mov    %eax,(%esp)
 804992e:	e8 bd ef ff ff       	call   80488f0 <close@plt>
 8049933:	b8 ff ff ff ff       	mov    $0xffffffff,%eax
 8049938:	e9 a5 04 00 00       	jmp    8049de2 <submitr+0x811>
 804993d:	8d 95 d8 7f ff ff    	lea    -0x8028(%ebp),%edx
 8049943:	b9 00 08 00 00       	mov    $0x800,%ecx
 8049948:	b8 00 00 00 00       	mov    $0x0,%eax
 804994d:	89 d7                	mov    %edx,%edi
 804994f:	f3 ab                	rep stos %eax,%es:(%edi)
 8049951:	89 df                	mov    %ebx,%edi
 8049953:	b9 ff ff ff ff       	mov    $0xffffffff,%ecx
 8049958:	f2 ae                	repnz scas %es:(%edi),%al
 804995a:	f7 d1                	not    %ecx
 804995c:	49                   	dec    %ecx
 804995d:	89 ce                	mov    %ecx,%esi
 804995f:	0f 84 92 04 00 00    	je     8049df7 <submitr+0x826>
 8049965:	89 d7                	mov    %edx,%edi
 8049967:	8a 03                	mov    (%ebx),%al
 8049969:	3c 2a                	cmp    $0x2a,%al
 804996b:	74 21                	je     804998e <submitr+0x3bd>
 804996d:	8d 50 d3             	lea    -0x2d(%eax),%edx
 8049970:	80 fa 01             	cmp    $0x1,%dl
 8049973:	76 19                	jbe    804998e <submitr+0x3bd>
 8049975:	3c 5f                	cmp    $0x5f,%al
 8049977:	74 15                	je     804998e <submitr+0x3bd>
 8049979:	8d 50 d0             	lea    -0x30(%eax),%edx
 804997c:	80 fa 09             	cmp    $0x9,%dl
 804997f:	76 0d                	jbe    804998e <submitr+0x3bd>
 8049981:	88 c2                	mov    %al,%dl
 8049983:	83 e2 df             	and    $0xffffffdf,%edx
 8049986:	83 ea 41             	sub    $0x41,%edx
 8049989:	80 fa 19             	cmp    $0x19,%dl
 804998c:	77 07                	ja     8049995 <submitr+0x3c4>
 804998e:	8d 57 01             	lea    0x1(%edi),%edx
 8049991:	88 07                	mov    %al,(%edi)
 8049993:	eb 68                	jmp    80499fd <submitr+0x42c>
 8049995:	3c 20                	cmp    $0x20,%al
 8049997:	75 08                	jne    80499a1 <submitr+0x3d0>
 8049999:	8d 57 01             	lea    0x1(%edi),%edx
 804999c:	c6 07 2b             	movb   $0x2b,(%edi)
 804999f:	eb 5c                	jmp    80499fd <submitr+0x42c>
 80499a1:	8d 50 e0             	lea    -0x20(%eax),%edx
 80499a4:	80 fa 5f             	cmp    $0x5f,%dl
 80499a7:	76 08                	jbe    80499b1 <submitr+0x3e0>
 80499a9:	3c 09                	cmp    $0x9,%al
 80499ab:	0f 85 bf 04 00 00    	jne    8049e70 <submitr+0x89f>
 80499b1:	25 ff 00 00 00       	and    $0xff,%eax
 80499b6:	89 44 24 10          	mov    %eax,0x10(%esp)
 80499ba:	c7 44 24 0c c4 a9 04 	movl   $0x804a9c4,0xc(%esp)
 80499c1:	08 
 80499c2:	c7 44 24 08 08 00 00 	movl   $0x8,0x8(%esp)
 80499c9:	00 
 80499ca:	c7 44 24 04 01 00 00 	movl   $0x1,0x4(%esp)
 80499d1:	00 
 80499d2:	8d 85 d8 df ff ff    	lea    -0x2028(%ebp),%eax
 80499d8:	89 04 24             	mov    %eax,(%esp)
 80499db:	e8 30 ef ff ff       	call   8048910 <__sprintf_chk@plt>
 80499e0:	8a 85 d8 df ff ff    	mov    -0x2028(%ebp),%al
 80499e6:	88 07                	mov    %al,(%edi)
 80499e8:	8a 85 d9 df ff ff    	mov    -0x2027(%ebp),%al
 80499ee:	88 47 01             	mov    %al,0x1(%edi)
 80499f1:	8d 57 03             	lea    0x3(%edi),%edx
 80499f4:	8a 85 da df ff ff    	mov    -0x2026(%ebp),%al
 80499fa:	88 47 02             	mov    %al,0x2(%edi)
 80499fd:	43                   	inc    %ebx
 80499fe:	4e                   	dec    %esi
 80499ff:	0f 84 f2 03 00 00    	je     8049df7 <submitr+0x826>
 8049a05:	89 d7                	mov    %edx,%edi
 8049a07:	e9 5b ff ff ff       	jmp    8049967 <submitr+0x396>
 8049a0c:	89 5c 24 08          	mov    %ebx,0x8(%esp)
 8049a10:	89 74 24 04          	mov    %esi,0x4(%esp)
 8049a14:	89 3c 24             	mov    %edi,(%esp)
 8049a17:	e8 34 ee ff ff       	call   8048850 <write@plt>
 8049a1c:	85 c0                	test   %eax,%eax
 8049a1e:	7f 0f                	jg     8049a2f <submitr+0x45e>
 8049a20:	e8 5b ee ff ff       	call   8048880 <__errno_location@plt>
 8049a25:	83 38 04             	cmpl   $0x4,(%eax)
 8049a28:	75 19                	jne    8049a43 <submitr+0x472>
 8049a2a:	b8 00 00 00 00       	mov    $0x0,%eax
 8049a2f:	01 c6                	add    %eax,%esi
 8049a31:	29 c3                	sub    %eax,%ebx
 8049a33:	75 d7                	jne    8049a0c <submitr+0x43b>
 8049a35:	8b bd b0 5f ff ff    	mov    -0xa050(%ebp),%edi
 8049a3b:	85 ff                	test   %edi,%edi
 8049a3d:	0f 89 85 00 00 00    	jns    8049ac8 <submitr+0x4f7>
 8049a43:	8b 8d a4 5f ff ff    	mov    -0xa05c(%ebp),%ecx
 8049a49:	89 cf                	mov    %ecx,%edi
 8049a4b:	be 0c a8 04 08       	mov    $0x804a80c,%esi
 8049a50:	b8 2c 00 00 00       	mov    $0x2c,%eax
 8049a55:	f6 c1 01             	test   $0x1,%cl
 8049a58:	74 14                	je     8049a6e <submitr+0x49d>
 8049a5a:	a0 0c a8 04 08       	mov    0x804a80c,%al
 8049a5f:	88 01                	mov    %al,(%ecx)
 8049a61:	8d 79 01             	lea    0x1(%ecx),%edi
 8049a64:	be 0d a8 04 08       	mov    $0x804a80d,%esi
 8049a69:	b8 2b 00 00 00       	mov    $0x2b,%eax
 8049a6e:	f7 c7 02 00 00 00    	test   $0x2,%edi
 8049a74:	74 0f                	je     8049a85 <submitr+0x4b4>
 8049a76:	66 8b 16             	mov    (%esi),%dx
 8049a79:	66 89 17             	mov    %dx,(%edi)
 8049a7c:	83 c7 02             	add    $0x2,%edi
 8049a7f:	83 c6 02             	add    $0x2,%esi
 8049a82:	83 e8 02             	sub    $0x2,%eax
 8049a85:	89 c1                	mov    %eax,%ecx
 8049a87:	c1 e9 02             	shr    $0x2,%ecx
 8049a8a:	f3 a5                	rep movsl %ds:(%esi),%es:(%edi)
 8049a8c:	ba 00 00 00 00       	mov    $0x0,%edx
 8049a91:	a8 02                	test   $0x2,%al
 8049a93:	74 0b                	je     8049aa0 <submitr+0x4cf>
 8049a95:	66 8b 16             	mov    (%esi),%dx
 8049a98:	66 89 17             	mov    %dx,(%edi)
 8049a9b:	ba 02 00 00 00       	mov    $0x2,%edx
 8049aa0:	a8 01                	test   $0x1,%al
 8049aa2:	74 0c                	je     8049ab0 <submitr+0x4df>
 8049aa4:	8a 04 16             	mov    (%esi,%edx,1),%al
 8049aa7:	88 85 b0 5f ff ff    	mov    %al,-0xa050(%ebp)
 8049aad:	88 04 17             	mov    %al,(%edi,%edx,1)
 8049ab0:	8b 85 b4 5f ff ff    	mov    -0xa04c(%ebp),%eax
 8049ab6:	89 04 24             	mov    %eax,(%esp)
 8049ab9:	e8 32 ee ff ff       	call   80488f0 <close@plt>
 8049abe:	b8 ff ff ff ff       	mov    $0xffffffff,%eax
 8049ac3:	e9 1a 03 00 00       	jmp    8049de2 <submitr+0x811>
 8049ac8:	8b 85 b4 5f ff ff    	mov    -0xa04c(%ebp),%eax
 8049ace:	89 85 d8 df ff ff    	mov    %eax,-0x2028(%ebp)
 8049ad4:	c7 85 dc df ff ff 00 	movl   $0x0,-0x2024(%ebp)
 8049adb:	00 00 00 
 8049ade:	8d 85 e4 df ff ff    	lea    -0x201c(%ebp),%eax
 8049ae4:	89 85 e0 df ff ff    	mov    %eax,-0x2020(%ebp)
 8049aea:	b9 00 20 00 00       	mov    $0x2000,%ecx
 8049aef:	8d 95 d8 5f ff ff    	lea    -0xa028(%ebp),%edx
 8049af5:	8d 85 d8 df ff ff    	lea    -0x2028(%ebp),%eax
 8049afb:	e8 cd f9 ff ff       	call   80494cd <rio_readlineb>
 8049b00:	85 c0                	test   %eax,%eax
 8049b02:	0f 8f 85 00 00 00    	jg     8049b8d <submitr+0x5bc>
 8049b08:	8b 8d a4 5f ff ff    	mov    -0xa05c(%ebp),%ecx
 8049b0e:	89 cf                	mov    %ecx,%edi
 8049b10:	be 38 a8 04 08       	mov    $0x804a838,%esi
 8049b15:	b8 36 00 00 00       	mov    $0x36,%eax
 8049b1a:	f6 c1 01             	test   $0x1,%cl
 8049b1d:	74 14                	je     8049b33 <submitr+0x562>
 8049b1f:	a0 38 a8 04 08       	mov    0x804a838,%al
 8049b24:	88 01                	mov    %al,(%ecx)
 8049b26:	8d 79 01             	lea    0x1(%ecx),%edi
 8049b29:	be 39 a8 04 08       	mov    $0x804a839,%esi
 8049b2e:	b8 35 00 00 00       	mov    $0x35,%eax
 8049b33:	f7 c7 02 00 00 00    	test   $0x2,%edi
 8049b39:	74 0f                	je     8049b4a <submitr+0x579>
 8049b3b:	66 8b 16             	mov    (%esi),%dx
 8049b3e:	66 89 17             	mov    %dx,(%edi)
 8049b41:	83 c7 02             	add    $0x2,%edi
 8049b44:	83 c6 02             	add    $0x2,%esi
 8049b47:	83 e8 02             	sub    $0x2,%eax
 8049b4a:	89 c1                	mov    %eax,%ecx
 8049b4c:	c1 e9 02             	shr    $0x2,%ecx
 8049b4f:	f3 a5                	rep movsl %ds:(%esi),%es:(%edi)
 8049b51:	ba 00 00 00 00       	mov    $0x0,%edx
 8049b56:	a8 02                	test   $0x2,%al
 8049b58:	74 0b                	je     8049b65 <submitr+0x594>
 8049b5a:	66 8b 16             	mov    (%esi),%dx
 8049b5d:	66 89 17             	mov    %dx,(%edi)
 8049b60:	ba 02 00 00 00       	mov    $0x2,%edx
 8049b65:	a8 01                	test   $0x1,%al
 8049b67:	74 0c                	je     8049b75 <submitr+0x5a4>
 8049b69:	8a 04 16             	mov    (%esi,%edx,1),%al
 8049b6c:	88 85 b0 5f ff ff    	mov    %al,-0xa050(%ebp)
 8049b72:	88 04 17             	mov    %al,(%edi,%edx,1)
 8049b75:	8b 85 b4 5f ff ff    	mov    -0xa04c(%ebp),%eax
 8049b7b:	89 04 24             	mov    %eax,(%esp)
 8049b7e:	e8 6d ed ff ff       	call   80488f0 <close@plt>
 8049b83:	b8 ff ff ff ff       	mov    $0xffffffff,%eax
 8049b88:	e9 55 02 00 00       	jmp    8049de2 <submitr+0x811>
 8049b8d:	8d 85 d8 bf ff ff    	lea    -0x4028(%ebp),%eax
 8049b93:	89 44 24 10          	mov    %eax,0x10(%esp)
 8049b97:	8d 85 c4 5f ff ff    	lea    -0xa03c(%ebp),%eax
 8049b9d:	89 44 24 0c          	mov    %eax,0xc(%esp)
 8049ba1:	8d 85 d8 9f ff ff    	lea    -0x6028(%ebp),%eax
 8049ba7:	89 44 24 08          	mov    %eax,0x8(%esp)
 8049bab:	c7 44 24 04 cb a9 04 	movl   $0x804a9cb,0x4(%esp)
 8049bb2:	08 
 8049bb3:	8d 85 d8 5f ff ff    	lea    -0xa028(%ebp),%eax
 8049bb9:	89 04 24             	mov    %eax,(%esp)
 8049bbc:	e8 9f ec ff ff       	call   8048860 <__isoc99_sscanf@plt>
 8049bc1:	8b 85 c4 5f ff ff    	mov    -0xa03c(%ebp),%eax
 8049bc7:	3d c8 00 00 00       	cmp    $0xc8,%eax
 8049bcc:	0f 84 ef 00 00 00    	je     8049cc1 <submitr+0x6f0>
 8049bd2:	8d 95 d8 bf ff ff    	lea    -0x4028(%ebp),%edx
 8049bd8:	89 54 24 14          	mov    %edx,0x14(%esp)
 8049bdc:	89 44 24 10          	mov    %eax,0x10(%esp)
 8049be0:	c7 44 24 0c 70 a8 04 	movl   $0x804a870,0xc(%esp)
 8049be7:	08 
 8049be8:	c7 44 24 08 ff ff ff 	movl   $0xffffffff,0x8(%esp)
 8049bef:	ff 
 8049bf0:	c7 44 24 04 01 00 00 	movl   $0x1,0x4(%esp)
 8049bf7:	00 
 8049bf8:	8b 85 a4 5f ff ff    	mov    -0xa05c(%ebp),%eax
 8049bfe:	89 04 24             	mov    %eax,(%esp)
 8049c01:	e8 0a ed ff ff       	call   8048910 <__sprintf_chk@plt>
 8049c06:	8b 85 b4 5f ff ff    	mov    -0xa04c(%ebp),%eax
 8049c0c:	89 04 24             	mov    %eax,(%esp)
 8049c0f:	e8 dc ec ff ff       	call   80488f0 <close@plt>
 8049c14:	b8 ff ff ff ff       	mov    $0xffffffff,%eax
 8049c19:	e9 c4 01 00 00       	jmp    8049de2 <submitr+0x811>
 8049c1e:	b9 00 20 00 00       	mov    $0x2000,%ecx
 8049c23:	8d 95 d8 5f ff ff    	lea    -0xa028(%ebp),%edx
 8049c29:	8d 85 d8 df ff ff    	lea    -0x2028(%ebp),%eax
 8049c2f:	e8 99 f8 ff ff       	call   80494cd <rio_readlineb>
 8049c34:	85 c0                	test   %eax,%eax
 8049c36:	0f 8f 85 00 00 00    	jg     8049cc1 <submitr+0x6f0>
 8049c3c:	8b 8d a4 5f ff ff    	mov    -0xa05c(%ebp),%ecx
 8049c42:	89 cf                	mov    %ecx,%edi
 8049c44:	be a0 a8 04 08       	mov    $0x804a8a0,%esi
 8049c49:	b8 31 00 00 00       	mov    $0x31,%eax
 8049c4e:	f6 c1 01             	test   $0x1,%cl
 8049c51:	74 14                	je     8049c67 <submitr+0x696>
 8049c53:	a0 a0 a8 04 08       	mov    0x804a8a0,%al
 8049c58:	88 01                	mov    %al,(%ecx)
 8049c5a:	8d 79 01             	lea    0x1(%ecx),%edi
 8049c5d:	be a1 a8 04 08       	mov    $0x804a8a1,%esi
 8049c62:	b8 30 00 00 00       	mov    $0x30,%eax
 8049c67:	f7 c7 02 00 00 00    	test   $0x2,%edi
 8049c6d:	74 0f                	je     8049c7e <submitr+0x6ad>
 8049c6f:	66 8b 16             	mov    (%esi),%dx
 8049c72:	66 89 17             	mov    %dx,(%edi)
 8049c75:	83 c7 02             	add    $0x2,%edi
 8049c78:	83 c6 02             	add    $0x2,%esi
 8049c7b:	83 e8 02             	sub    $0x2,%eax
 8049c7e:	89 c1                	mov    %eax,%ecx
 8049c80:	c1 e9 02             	shr    $0x2,%ecx
 8049c83:	f3 a5                	rep movsl %ds:(%esi),%es:(%edi)
 8049c85:	ba 00 00 00 00       	mov    $0x0,%edx
 8049c8a:	a8 02                	test   $0x2,%al
 8049c8c:	74 0b                	je     8049c99 <submitr+0x6c8>
 8049c8e:	66 8b 16             	mov    (%esi),%dx
 8049c91:	66 89 17             	mov    %dx,(%edi)
 8049c94:	ba 02 00 00 00       	mov    $0x2,%edx
 8049c99:	a8 01                	test   $0x1,%al
 8049c9b:	74 0c                	je     8049ca9 <submitr+0x6d8>
 8049c9d:	8a 04 16             	mov    (%esi,%edx,1),%al
 8049ca0:	88 85 b0 5f ff ff    	mov    %al,-0xa050(%ebp)
 8049ca6:	88 04 17             	mov    %al,(%edi,%edx,1)
 8049ca9:	8b 85 b4 5f ff ff    	mov    -0xa04c(%ebp),%eax
 8049caf:	89 04 24             	mov    %eax,(%esp)
 8049cb2:	e8 39 ec ff ff       	call   80488f0 <close@plt>
 8049cb7:	b8 ff ff ff ff       	mov    $0xffffffff,%eax
 8049cbc:	e9 21 01 00 00       	jmp    8049de2 <submitr+0x811>
 8049cc1:	80 bd d8 5f ff ff 0d 	cmpb   $0xd,-0xa028(%ebp)
 8049cc8:	0f 85 50 ff ff ff    	jne    8049c1e <submitr+0x64d>
 8049cce:	80 bd d9 5f ff ff 0a 	cmpb   $0xa,-0xa027(%ebp)
 8049cd5:	0f 85 43 ff ff ff    	jne    8049c1e <submitr+0x64d>
 8049cdb:	80 bd da 5f ff ff 00 	cmpb   $0x0,-0xa026(%ebp)
 8049ce2:	0f 85 36 ff ff ff    	jne    8049c1e <submitr+0x64d>
 8049ce8:	b9 00 20 00 00       	mov    $0x2000,%ecx
 8049ced:	8d 95 d8 5f ff ff    	lea    -0xa028(%ebp),%edx
 8049cf3:	8d 85 d8 df ff ff    	lea    -0x2028(%ebp),%eax
 8049cf9:	e8 cf f7 ff ff       	call   80494cd <rio_readlineb>
 8049cfe:	85 c0                	test   %eax,%eax
 8049d00:	0f 8f 82 00 00 00    	jg     8049d88 <submitr+0x7b7>
 8049d06:	8b 8d a4 5f ff ff    	mov    -0xa05c(%ebp),%ecx
 8049d0c:	89 cf                	mov    %ecx,%edi
 8049d0e:	be d4 a8 04 08       	mov    $0x804a8d4,%esi
 8049d13:	b8 38 00 00 00       	mov    $0x38,%eax
 8049d18:	f6 c1 01             	test   $0x1,%cl
 8049d1b:	74 14                	je     8049d31 <submitr+0x760>
 8049d1d:	a0 d4 a8 04 08       	mov    0x804a8d4,%al
 8049d22:	88 01                	mov    %al,(%ecx)
 8049d24:	8d 79 01             	lea    0x1(%ecx),%edi
 8049d27:	be d5 a8 04 08       	mov    $0x804a8d5,%esi
 8049d2c:	b8 37 00 00 00       	mov    $0x37,%eax
 8049d31:	f7 c7 02 00 00 00    	test   $0x2,%edi
 8049d37:	74 0f                	je     8049d48 <submitr+0x777>
 8049d39:	66 8b 16             	mov    (%esi),%dx
 8049d3c:	66 89 17             	mov    %dx,(%edi)
 8049d3f:	83 c7 02             	add    $0x2,%edi
 8049d42:	83 c6 02             	add    $0x2,%esi
 8049d45:	83 e8 02             	sub    $0x2,%eax
 8049d48:	89 c1                	mov    %eax,%ecx
 8049d4a:	c1 e9 02             	shr    $0x2,%ecx
 8049d4d:	f3 a5                	rep movsl %ds:(%esi),%es:(%edi)
 8049d4f:	ba 00 00 00 00       	mov    $0x0,%edx
 8049d54:	a8 02                	test   $0x2,%al
 8049d56:	74 0b                	je     8049d63 <submitr+0x792>
 8049d58:	66 8b 16             	mov    (%esi),%dx
 8049d5b:	66 89 17             	mov    %dx,(%edi)
 8049d5e:	ba 02 00 00 00       	mov    $0x2,%edx
 8049d63:	a8 01                	test   $0x1,%al
 8049d65:	74 0c                	je     8049d73 <submitr+0x7a2>
 8049d67:	8a 04 16             	mov    (%esi,%edx,1),%al
 8049d6a:	88 85 b0 5f ff ff    	mov    %al,-0xa050(%ebp)
 8049d70:	88 04 17             	mov    %al,(%edi,%edx,1)
 8049d73:	8b 85 b4 5f ff ff    	mov    -0xa04c(%ebp),%eax
 8049d79:	89 04 24             	mov    %eax,(%esp)
 8049d7c:	e8 6f eb ff ff       	call   80488f0 <close@plt>
 8049d81:	b8 ff ff ff ff       	mov    $0xffffffff,%eax
 8049d86:	eb 5a                	jmp    8049de2 <submitr+0x811>
 8049d88:	8d 85 d8 5f ff ff    	lea    -0xa028(%ebp),%eax
 8049d8e:	89 44 24 04          	mov    %eax,0x4(%esp)
 8049d92:	8b b5 a4 5f ff ff    	mov    -0xa05c(%ebp),%esi
 8049d98:	89 34 24             	mov    %esi,(%esp)
 8049d9b:	e8 30 ea ff ff       	call   80487d0 <strcpy@plt>
 8049da0:	8b 85 b4 5f ff ff    	mov    -0xa04c(%ebp),%eax
 8049da6:	89 04 24             	mov    %eax,(%esp)
 8049da9:	e8 42 eb ff ff       	call   80488f0 <close@plt>
 8049dae:	31 c0                	xor    %eax,%eax
 8049db0:	8a 06                	mov    (%esi),%al
 8049db2:	ba 4f 00 00 00       	mov    $0x4f,%edx
 8049db7:	29 c2                	sub    %eax,%edx
 8049db9:	75 1b                	jne    8049dd6 <submitr+0x805>
 8049dbb:	8b 8d a4 5f ff ff    	mov    -0xa05c(%ebp),%ecx
 8049dc1:	31 c0                	xor    %eax,%eax
 8049dc3:	8a 41 01             	mov    0x1(%ecx),%al
 8049dc6:	ba 4b 00 00 00       	mov    $0x4b,%edx
 8049dcb:	29 c2                	sub    %eax,%edx
 8049dcd:	75 07                	jne    8049dd6 <submitr+0x805>
 8049dcf:	31 d2                	xor    %edx,%edx
 8049dd1:	8a 51 02             	mov    0x2(%ecx),%dl
 8049dd4:	f7 da                	neg    %edx
 8049dd6:	85 d2                	test   %edx,%edx
 8049dd8:	0f 95 c0             	setne  %al
 8049ddb:	25 ff 00 00 00       	and    $0xff,%eax
 8049de0:	f7 d8                	neg    %eax
 8049de2:	8b 4d e4             	mov    -0x1c(%ebp),%ecx
 8049de5:	65 33 0d 14 00 00 00 	xor    %gs:0x14,%ecx
 8049dec:	0f 84 08 01 00 00    	je     8049efa <submitr+0x929>
 8049df2:	e9 fe 00 00 00       	jmp    8049ef5 <submitr+0x924>
 8049df7:	8d 85 d8 7f ff ff    	lea    -0x8028(%ebp),%eax
 8049dfd:	89 44 24 1c          	mov    %eax,0x1c(%esp)
 8049e01:	8b 85 a8 5f ff ff    	mov    -0xa058(%ebp),%eax
 8049e07:	89 44 24 18          	mov    %eax,0x18(%esp)
 8049e0b:	8b 85 ac 5f ff ff    	mov    -0xa054(%ebp),%eax
 8049e11:	89 44 24 14          	mov    %eax,0x14(%esp)
 8049e15:	8b 85 b0 5f ff ff    	mov    -0xa050(%ebp),%eax
 8049e1b:	89 44 24 10          	mov    %eax,0x10(%esp)
 8049e1f:	c7 44 24 0c 0c a9 04 	movl   $0x804a90c,0xc(%esp)
 8049e26:	08 
 8049e27:	c7 44 24 08 00 20 00 	movl   $0x2000,0x8(%esp)
 8049e2e:	00 
 8049e2f:	c7 44 24 04 01 00 00 	movl   $0x1,0x4(%esp)
 8049e36:	00 
 8049e37:	8d bd d8 5f ff ff    	lea    -0xa028(%ebp),%edi
 8049e3d:	89 3c 24             	mov    %edi,(%esp)
 8049e40:	e8 cb ea ff ff       	call   8048910 <__sprintf_chk@plt>
 8049e45:	b0 00                	mov    $0x0,%al
 8049e47:	b9 ff ff ff ff       	mov    $0xffffffff,%ecx
 8049e4c:	f2 ae                	repnz scas %es:(%edi),%al
 8049e4e:	f7 d1                	not    %ecx
 8049e50:	49                   	dec    %ecx
 8049e51:	0f 84 71 fc ff ff    	je     8049ac8 <submitr+0x4f7>
 8049e57:	89 cb                	mov    %ecx,%ebx
 8049e59:	8d b5 d8 5f ff ff    	lea    -0xa028(%ebp),%esi
 8049e5f:	89 8d b0 5f ff ff    	mov    %ecx,-0xa050(%ebp)
 8049e65:	8b bd b4 5f ff ff    	mov    -0xa04c(%ebp),%edi
 8049e6b:	e9 9c fb ff ff       	jmp    8049a0c <submitr+0x43b>
 8049e70:	8b 8d a4 5f ff ff    	mov    -0xa05c(%ebp),%ecx
 8049e76:	89 cf                	mov    %ecx,%edi
 8049e78:	be 58 a9 04 08       	mov    $0x804a958,%esi
 8049e7d:	b8 43 00 00 00       	mov    $0x43,%eax
 8049e82:	f6 c1 01             	test   $0x1,%cl
 8049e85:	74 14                	je     8049e9b <submitr+0x8ca>
 8049e87:	a0 58 a9 04 08       	mov    0x804a958,%al
 8049e8c:	88 01                	mov    %al,(%ecx)
 8049e8e:	8d 79 01             	lea    0x1(%ecx),%edi
 8049e91:	be 59 a9 04 08       	mov    $0x804a959,%esi
 8049e96:	b8 42 00 00 00       	mov    $0x42,%eax
 8049e9b:	f7 c7 02 00 00 00    	test   $0x2,%edi
 8049ea1:	74 0f                	je     8049eb2 <submitr+0x8e1>
 8049ea3:	66 8b 16             	mov    (%esi),%dx
 8049ea6:	66 89 17             	mov    %dx,(%edi)
 8049ea9:	83 c7 02             	add    $0x2,%edi
 8049eac:	83 c6 02             	add    $0x2,%esi
 8049eaf:	83 e8 02             	sub    $0x2,%eax
 8049eb2:	89 c1                	mov    %eax,%ecx
 8049eb4:	c1 e9 02             	shr    $0x2,%ecx
 8049eb7:	f3 a5                	rep movsl %ds:(%esi),%es:(%edi)
 8049eb9:	ba 00 00 00 00       	mov    $0x0,%edx
 8049ebe:	a8 02                	test   $0x2,%al
 8049ec0:	74 0b                	je     8049ecd <submitr+0x8fc>
 8049ec2:	66 8b 16             	mov    (%esi),%dx
 8049ec5:	66 89 17             	mov    %dx,(%edi)
 8049ec8:	ba 02 00 00 00       	mov    $0x2,%edx
 8049ecd:	a8 01                	test   $0x1,%al
 8049ecf:	74 0c                	je     8049edd <submitr+0x90c>
 8049ed1:	8a 04 16             	mov    (%esi,%edx,1),%al
 8049ed4:	88 85 b0 5f ff ff    	mov    %al,-0xa050(%ebp)
 8049eda:	88 04 17             	mov    %al,(%edi,%edx,1)
 8049edd:	8b 85 b4 5f ff ff    	mov    -0xa04c(%ebp),%eax
 8049ee3:	89 04 24             	mov    %eax,(%esp)
 8049ee6:	e8 05 ea ff ff       	call   80488f0 <close@plt>
 8049eeb:	b8 ff ff ff ff       	mov    $0xffffffff,%eax
 8049ef0:	e9 ed fe ff ff       	jmp    8049de2 <submitr+0x811>
 8049ef5:	e8 c6 e8 ff ff       	call   80487c0 <__stack_chk_fail@plt>
 8049efa:	81 c4 7c a0 00 00    	add    $0xa07c,%esp
 8049f00:	5b                   	pop    %ebx
 8049f01:	5e                   	pop    %esi
 8049f02:	5f                   	pop    %edi
 8049f03:	5d                   	pop    %ebp
 8049f04:	c3                   	ret    

08049f05 <init_timeout>:
 8049f05:	55                   	push   %ebp
 8049f06:	89 e5                	mov    %esp,%ebp
 8049f08:	53                   	push   %ebx
 8049f09:	83 ec 14             	sub    $0x14,%esp
 8049f0c:	8b 5d 08             	mov    0x8(%ebp),%ebx
 8049f0f:	85 db                	test   %ebx,%ebx
 8049f11:	74 25                	je     8049f38 <init_timeout+0x33>
 8049f13:	c7 44 24 04 96 94 04 	movl   $0x8049496,0x4(%esp)
 8049f1a:	08 
 8049f1b:	c7 04 24 0e 00 00 00 	movl   $0xe,(%esp)
 8049f22:	e8 69 e8 ff ff       	call   8048790 <signal@plt>
 8049f27:	89 d8                	mov    %ebx,%eax
 8049f29:	f7 d0                	not    %eax
 8049f2b:	c1 f8 1f             	sar    $0x1f,%eax
 8049f2e:	21 c3                	and    %eax,%ebx
 8049f30:	89 1c 24             	mov    %ebx,(%esp)
 8049f33:	e8 78 e8 ff ff       	call   80487b0 <alarm@plt>
 8049f38:	83 c4 14             	add    $0x14,%esp
 8049f3b:	5b                   	pop    %ebx
 8049f3c:	5d                   	pop    %ebp
 8049f3d:	c3                   	ret    

08049f3e <init_driver>:
 8049f3e:	55                   	push   %ebp
 8049f3f:	89 e5                	mov    %esp,%ebp
 8049f41:	57                   	push   %edi
 8049f42:	56                   	push   %esi
 8049f43:	53                   	push   %ebx
 8049f44:	83 ec 4c             	sub    $0x4c,%esp
 8049f47:	8b 75 08             	mov    0x8(%ebp),%esi
 8049f4a:	65 a1 14 00 00 00    	mov    %gs:0x14,%eax
 8049f50:	89 45 e4             	mov    %eax,-0x1c(%ebp)
 8049f53:	31 c0                	xor    %eax,%eax
 8049f55:	c7 44 24 04 01 00 00 	movl   $0x1,0x4(%esp)
 8049f5c:	00 
 8049f5d:	c7 04 24 0d 00 00 00 	movl   $0xd,(%esp)
 8049f64:	e8 27 e8 ff ff       	call   8048790 <signal@plt>
 8049f69:	c7 44 24 04 01 00 00 	movl   $0x1,0x4(%esp)
 8049f70:	00 
 8049f71:	c7 04 24 1d 00 00 00 	movl   $0x1d,(%esp)
 8049f78:	e8 13 e8 ff ff       	call   8048790 <signal@plt>
 8049f7d:	c7 44 24 04 01 00 00 	movl   $0x1,0x4(%esp)
 8049f84:	00 
 8049f85:	c7 04 24 1d 00 00 00 	movl   $0x1d,(%esp)
 8049f8c:	e8 ff e7 ff ff       	call   8048790 <signal@plt>
 8049f91:	c7 44 24 08 00 00 00 	movl   $0x0,0x8(%esp)
 8049f98:	00 
 8049f99:	c7 44 24 04 01 00 00 	movl   $0x1,0x4(%esp)
 8049fa0:	00 
 8049fa1:	c7 04 24 02 00 00 00 	movl   $0x2,(%esp)
 8049fa8:	e8 f3 e8 ff ff       	call   80488a0 <socket@plt>
 8049fad:	89 c3                	mov    %eax,%ebx
 8049faf:	85 c0                	test   %eax,%eax
 8049fb1:	79 70                	jns    804a023 <init_driver+0xe5>
 8049fb3:	89 f7                	mov    %esi,%edi
 8049fb5:	ba 54 a7 04 08       	mov    $0x804a754,%edx
 8049fba:	b8 26 00 00 00       	mov    $0x26,%eax
 8049fbf:	f7 c6 01 00 00 00    	test   $0x1,%esi
 8049fc5:	74 14                	je     8049fdb <init_driver+0x9d>
 8049fc7:	a0 54 a7 04 08       	mov    0x804a754,%al
 8049fcc:	88 06                	mov    %al,(%esi)
 8049fce:	8d 7e 01             	lea    0x1(%esi),%edi
 8049fd1:	ba 55 a7 04 08       	mov    $0x804a755,%edx
 8049fd6:	b8 25 00 00 00       	mov    $0x25,%eax
 8049fdb:	f7 c7 02 00 00 00    	test   $0x2,%edi
 8049fe1:	74 0f                	je     8049ff2 <init_driver+0xb4>
 8049fe3:	66 8b 0a             	mov    (%edx),%cx
 8049fe6:	66 89 0f             	mov    %cx,(%edi)
 8049fe9:	83 c7 02             	add    $0x2,%edi
 8049fec:	83 c2 02             	add    $0x2,%edx
 8049fef:	83 e8 02             	sub    $0x2,%eax
 8049ff2:	89 c1                	mov    %eax,%ecx
 8049ff4:	c1 e9 02             	shr    $0x2,%ecx
 8049ff7:	89 d6                	mov    %edx,%esi
 8049ff9:	f3 a5                	rep movsl %ds:(%esi),%es:(%edi)
 8049ffb:	89 f2                	mov    %esi,%edx
 8049ffd:	a8 02                	test   $0x2,%al
 8049fff:	74 0b                	je     804a00c <init_driver+0xce>
 804a001:	66 8b 0e             	mov    (%esi),%cx
 804a004:	66 89 0f             	mov    %cx,(%edi)
 804a007:	b9 02 00 00 00       	mov    $0x2,%ecx
 804a00c:	a8 01                	test   $0x1,%al
 804a00e:	74 09                	je     804a019 <init_driver+0xdb>
 804a010:	8a 04 0a             	mov    (%edx,%ecx,1),%al
 804a013:	88 45 c7             	mov    %al,-0x39(%ebp)
 804a016:	88 04 0f             	mov    %al,(%edi,%ecx,1)
 804a019:	b8 ff ff ff ff       	mov    $0xffffffff,%eax
 804a01e:	e9 3a 01 00 00       	jmp    804a15d <init_driver+0x21f>
 804a023:	c7 04 24 dc a9 04 08 	movl   $0x804a9dc,(%esp)
 804a02a:	e8 91 e8 ff ff       	call   80488c0 <gethostbyname@plt>
 804a02f:	85 c0                	test   %eax,%eax
 804a031:	75 77                	jne    804a0aa <init_driver+0x16c>
 804a033:	89 f7                	mov    %esi,%edi
 804a035:	b8 7c a7 04 08       	mov    $0x804a77c,%eax
 804a03a:	ba 2f 00 00 00       	mov    $0x2f,%edx
 804a03f:	f7 c6 01 00 00 00    	test   $0x1,%esi
 804a045:	74 11                	je     804a058 <init_driver+0x11a>
 804a047:	a0 7c a7 04 08       	mov    0x804a77c,%al
 804a04c:	88 06                	mov    %al,(%esi)
 804a04e:	8d 7e 01             	lea    0x1(%esi),%edi
 804a051:	b8 7d a7 04 08       	mov    $0x804a77d,%eax
 804a056:	b2 2e                	mov    $0x2e,%dl
 804a058:	f7 c7 02 00 00 00    	test   $0x2,%edi
 804a05e:	74 0f                	je     804a06f <init_driver+0x131>
 804a060:	66 8b 08             	mov    (%eax),%cx
 804a063:	66 89 0f             	mov    %cx,(%edi)
 804a066:	83 c7 02             	add    $0x2,%edi
 804a069:	83 c0 02             	add    $0x2,%eax
 804a06c:	83 ea 02             	sub    $0x2,%edx
 804a06f:	89 d1                	mov    %edx,%ecx
 804a071:	c1 e9 02             	shr    $0x2,%ecx
 804a074:	89 c6                	mov    %eax,%esi
 804a076:	f3 a5                	rep movsl %ds:(%esi),%es:(%edi)
 804a078:	89 f0                	mov    %esi,%eax
 804a07a:	f6 c2 02             	test   $0x2,%dl
 804a07d:	74 0b                	je     804a08a <init_driver+0x14c>
 804a07f:	66 8b 0e             	mov    (%esi),%cx
 804a082:	66 89 0f             	mov    %cx,(%edi)
 804a085:	b9 02 00 00 00       	mov    $0x2,%ecx
 804a08a:	f6 c2 01             	test   $0x1,%dl
 804a08d:	74 09                	je     804a098 <init_driver+0x15a>
 804a08f:	8a 04 08             	mov    (%eax,%ecx,1),%al
 804a092:	88 45 c7             	mov    %al,-0x39(%ebp)
 804a095:	88 04 0f             	mov    %al,(%edi,%ecx,1)
 804a098:	89 1c 24             	mov    %ebx,(%esp)
 804a09b:	e8 50 e8 ff ff       	call   80488f0 <close@plt>
 804a0a0:	b8 ff ff ff ff       	mov    $0xffffffff,%eax
 804a0a5:	e9 b3 00 00 00       	jmp    804a15d <init_driver+0x21f>
 804a0aa:	8d 7d d4             	lea    -0x2c(%ebp),%edi
 804a0ad:	c7 45 d4 00 00 00 00 	movl   $0x0,-0x2c(%ebp)
 804a0b4:	c7 45 d8 00 00 00 00 	movl   $0x0,-0x28(%ebp)
 804a0bb:	c7 45 dc 00 00 00 00 	movl   $0x0,-0x24(%ebp)
 804a0c2:	c7 45 e0 00 00 00 00 	movl   $0x0,-0x20(%ebp)
 804a0c9:	66 c7 45 d4 02 00    	movw   $0x2,-0x2c(%ebp)
 804a0cf:	c7 44 24 0c 0c 00 00 	movl   $0xc,0xc(%esp)
 804a0d6:	00 
 804a0d7:	8b 50 0c             	mov    0xc(%eax),%edx
 804a0da:	89 54 24 08          	mov    %edx,0x8(%esp)
 804a0de:	8b 40 10             	mov    0x10(%eax),%eax
 804a0e1:	8b 00                	mov    (%eax),%eax
 804a0e3:	89 44 24 04          	mov    %eax,0x4(%esp)
 804a0e7:	8d 45 d8             	lea    -0x28(%ebp),%eax
 804a0ea:	89 04 24             	mov    %eax,(%esp)
 804a0ed:	e8 0e e7 ff ff       	call   8048800 <__memmove_chk@plt>
 804a0f2:	66 c7 45 d6 4e c2    	movw   $0xc24e,-0x2a(%ebp)
 804a0f8:	c7 44 24 08 10 00 00 	movl   $0x10,0x8(%esp)
 804a0ff:	00 
 804a100:	89 7c 24 04          	mov    %edi,0x4(%esp)
 804a104:	89 1c 24             	mov    %ebx,(%esp)
 804a107:	e8 d4 e7 ff ff       	call   80488e0 <connect@plt>
 804a10c:	85 c0                	test   %eax,%eax
 804a10e:	79 37                	jns    804a147 <init_driver+0x209>
 804a110:	c7 44 24 10 dc a9 04 	movl   $0x804a9dc,0x10(%esp)
 804a117:	08 
 804a118:	c7 44 24 0c 9c a9 04 	movl   $0x804a99c,0xc(%esp)
 804a11f:	08 
 804a120:	c7 44 24 08 ff ff ff 	movl   $0xffffffff,0x8(%esp)
 804a127:	ff 
 804a128:	c7 44 24 04 01 00 00 	movl   $0x1,0x4(%esp)
 804a12f:	00 
 804a130:	89 34 24             	mov    %esi,(%esp)
 804a133:	e8 d8 e7 ff ff       	call   8048910 <__sprintf_chk@plt>
 804a138:	89 1c 24             	mov    %ebx,(%esp)
 804a13b:	e8 b0 e7 ff ff       	call   80488f0 <close@plt>
 804a140:	b8 ff ff ff ff       	mov    $0xffffffff,%eax
 804a145:	eb 16                	jmp    804a15d <init_driver+0x21f>
 804a147:	89 1c 24             	mov    %ebx,(%esp)
 804a14a:	e8 a1 e7 ff ff       	call   80488f0 <close@plt>
 804a14f:	66 c7 06 4f 4b       	movw   $0x4b4f,(%esi)
 804a154:	c6 46 02 00          	movb   $0x0,0x2(%esi)
 804a158:	b8 00 00 00 00       	mov    $0x0,%eax
 804a15d:	8b 4d e4             	mov    -0x1c(%ebp),%ecx
 804a160:	65 33 0d 14 00 00 00 	xor    %gs:0x14,%ecx
 804a167:	74 05                	je     804a16e <init_driver+0x230>
 804a169:	e8 52 e6 ff ff       	call   80487c0 <__stack_chk_fail@plt>
 804a16e:	83 c4 4c             	add    $0x4c,%esp
 804a171:	5b                   	pop    %ebx
 804a172:	5e                   	pop    %esi
 804a173:	5f                   	pop    %edi
 804a174:	5d                   	pop    %ebp
 804a175:	c3                   	ret    

0804a176 <driver_post>:
 804a176:	55                   	push   %ebp
 804a177:	89 e5                	mov    %esp,%ebp
 804a179:	53                   	push   %ebx
 804a17a:	83 ec 24             	sub    $0x24,%esp
 804a17d:	8b 45 08             	mov    0x8(%ebp),%eax
 804a180:	8b 5d 14             	mov    0x14(%ebp),%ebx
 804a183:	83 7d 10 00          	cmpl   $0x0,0x10(%ebp)
 804a187:	74 2b                	je     804a1b4 <driver_post+0x3e>
 804a189:	8b 45 0c             	mov    0xc(%ebp),%eax
 804a18c:	89 44 24 08          	mov    %eax,0x8(%esp)
 804a190:	c7 44 24 04 f3 a9 04 	movl   $0x804a9f3,0x4(%esp)
 804a197:	08 
 804a198:	c7 04 24 01 00 00 00 	movl   $0x1,(%esp)
 804a19f:	e8 ec e6 ff ff       	call   8048890 <__printf_chk@plt>
 804a1a4:	66 c7 03 4f 4b       	movw   $0x4b4f,(%ebx)
 804a1a9:	c6 43 02 00          	movb   $0x0,0x2(%ebx)
 804a1ad:	b8 00 00 00 00       	mov    $0x0,%eax
 804a1b2:	eb 4c                	jmp    804a200 <driver_post+0x8a>
 804a1b4:	85 c0                	test   %eax,%eax
 804a1b6:	74 3a                	je     804a1f2 <driver_post+0x7c>
 804a1b8:	80 38 00             	cmpb   $0x0,(%eax)
 804a1bb:	74 35                	je     804a1f2 <driver_post+0x7c>
 804a1bd:	89 5c 24 18          	mov    %ebx,0x18(%esp)
 804a1c1:	8b 55 0c             	mov    0xc(%ebp),%edx
 804a1c4:	89 54 24 14          	mov    %edx,0x14(%esp)
 804a1c8:	c7 44 24 10 0a aa 04 	movl   $0x804aa0a,0x10(%esp)
 804a1cf:	08 
 804a1d0:	89 44 24 0c          	mov    %eax,0xc(%esp)
 804a1d4:	c7 44 24 08 17 aa 04 	movl   $0x804aa17,0x8(%esp)
 804a1db:	08 
 804a1dc:	c7 44 24 04 c2 4e 00 	movl   $0x4ec2,0x4(%esp)
 804a1e3:	00 
 804a1e4:	c7 04 24 dc a9 04 08 	movl   $0x804a9dc,(%esp)
 804a1eb:	e8 e1 f3 ff ff       	call   80495d1 <submitr>
 804a1f0:	eb 0e                	jmp    804a200 <driver_post+0x8a>
 804a1f2:	66 c7 03 4f 4b       	movw   $0x4b4f,(%ebx)
 804a1f7:	c6 43 02 00          	movb   $0x0,0x2(%ebx)
 804a1fb:	b8 00 00 00 00       	mov    $0x0,%eax
 804a200:	83 c4 24             	add    $0x24,%esp
 804a203:	5b                   	pop    %ebx
 804a204:	5d                   	pop    %ebp
 804a205:	c3                   	ret    
 804a206:	66 90                	xchg   %ax,%ax
 804a208:	66 90                	xchg   %ax,%ax
 804a20a:	66 90                	xchg   %ax,%ax
 804a20c:	66 90                	xchg   %ax,%ax
 804a20e:	66 90                	xchg   %ax,%ax

0804a210 <__libc_csu_init>:
 804a210:	55                   	push   %ebp
 804a211:	57                   	push   %edi
 804a212:	31 ff                	xor    %edi,%edi
 804a214:	56                   	push   %esi
 804a215:	53                   	push   %ebx
 804a216:	e8 35 e7 ff ff       	call   8048950 <__x86.get_pc_thunk.bx>
 804a21b:	81 c3 e5 1d 00 00    	add    $0x1de5,%ebx
 804a221:	83 ec 1c             	sub    $0x1c,%esp
 804a224:	8b 6c 24 30          	mov    0x30(%esp),%ebp
 804a228:	8d b3 0c ff ff ff    	lea    -0xf4(%ebx),%esi
 804a22e:	e8 f1 e4 ff ff       	call   8048724 <_init>
 804a233:	8d 83 08 ff ff ff    	lea    -0xf8(%ebx),%eax
 804a239:	29 c6                	sub    %eax,%esi
 804a23b:	c1 fe 02             	sar    $0x2,%esi
 804a23e:	85 f6                	test   %esi,%esi
 804a240:	74 27                	je     804a269 <__libc_csu_init+0x59>
 804a242:	8d b6 00 00 00 00    	lea    0x0(%esi),%esi
 804a248:	8b 44 24 38          	mov    0x38(%esp),%eax
 804a24c:	89 2c 24             	mov    %ebp,(%esp)
 804a24f:	89 44 24 08          	mov    %eax,0x8(%esp)
 804a253:	8b 44 24 34          	mov    0x34(%esp),%eax
 804a257:	89 44 24 04          	mov    %eax,0x4(%esp)
 804a25b:	ff 94 bb 08 ff ff ff 	call   *-0xf8(%ebx,%edi,4)
 804a262:	83 c7 01             	add    $0x1,%edi
 804a265:	39 f7                	cmp    %esi,%edi
 804a267:	75 df                	jne    804a248 <__libc_csu_init+0x38>
 804a269:	83 c4 1c             	add    $0x1c,%esp
 804a26c:	5b                   	pop    %ebx
 804a26d:	5e                   	pop    %esi
 804a26e:	5f                   	pop    %edi
 804a26f:	5d                   	pop    %ebp
 804a270:	c3                   	ret    
 804a271:	eb 0d                	jmp    804a280 <__libc_csu_fini>
 804a273:	90                   	nop
 804a274:	90                   	nop
 804a275:	90                   	nop
 804a276:	90                   	nop
 804a277:	90                   	nop
 804a278:	90                   	nop
 804a279:	90                   	nop
 804a27a:	90                   	nop
 804a27b:	90                   	nop
 804a27c:	90                   	nop
 804a27d:	90                   	nop
 804a27e:	90                   	nop
 804a27f:	90                   	nop

0804a280 <__libc_csu_fini>:
 804a280:	f3 c3                	repz ret 

Disassembly of section .fini:

0804a284 <_fini>:
 804a284:	53                   	push   %ebx
 804a285:	83 ec 08             	sub    $0x8,%esp
 804a288:	e8 c3 e6 ff ff       	call   8048950 <__x86.get_pc_thunk.bx>
 804a28d:	81 c3 73 1d 00 00    	add    $0x1d73,%ebx
 804a293:	83 c4 08             	add    $0x8,%esp
 804a296:	5b                   	pop    %ebx
 804a297:	c3                   	ret    
